(lp0
(lp1
ccopy_reg
_reconstructor
p2
(cbson.objectid
ObjectId
p3
c__builtin__
object
p4
Ntp5
Rp6
S'Y\x19\xad\xe4\xed\x7f\xa80\x0c\xbd\xf8\xf8'
p7
baVProtobothrops mucrosquamatus
p8
aVhttps://upload.wikimedia.org/wikipedia/commons/d/de/Trimeresurus_mucrosquamatus.jpg
p9
aa(lp10
g2
(g3
g4
Ntp11
Rp12
S'Y\x19\xad\xe5\xed\x7f\xa80\x0c\xbd\xf8\xf9'
p13
baVOvophis monticola
p14
aVhttps://upload.wikimedia.org/wikipedia/commons/0/00/Yunnan_lizards.jpg
p15
aa(lp16
g2
(g3
g4
Ntp17
Rp18
S'Y\x19\xad\xe5\xed\x7f\xa80\x0c\xbd\xf8\xfa'
p19
baVCrotalus mitchellii mitchellii
p20
aVhttps://upload.wikimedia.org/wikipedia/commons/7/72/Coal_anthracite.jpg
p21
aa(lp22
g2
(g3
g4
Ntp23
Rp24
S'Y\x19\xad\xe5\xed\x7f\xa80\x0c\xbd\xf8\xfb'
p25
baVGloydius ussuriensis
p26
aVhttps://upload.wikimedia.org/wikipedia/commons/a/a5/Gloydius_ussuriensis.JPG
p27
aa(lp28
g2
(g3
g4
Ntp29
Rp30
S'Y\x19\xad\xe5\xed\x7f\xa80\x0c\xbd\xf8\xfc'
p31
baVVaejovis mexicanus smithi
p32
aVhttps://upload.wikimedia.org/wikipedia/commons/4/48/Vanadium_1.jpg
p33
aa(lp34
g2
(g3
g4
Ntp35
Rp36
S'Y\x19\xad\xe5\xed\x7f\xa80\x0c\xbd\xf8\xfe'
p37
baVConus sulcatus
p38
aVhttps://upload.wikimedia.org/wikipedia/commons/2/2d/Conus_sulcatus_1.jpg
p39
aa(lp40
g2
(g3
g4
Ntp41
Rp42
S'Y\x19\xad\xe5\xed\x7f\xa80\x0c\xbd\xf9\x00'
p43
baVConus villepinii
p44
aVhttps://upload.wikimedia.org/wikipedia/commons/9/94/Conus_villepinii_1.jpg
p45
aa(lp46
g2
(g3
g4
Ntp47
Rp48
S'Y\x19\xad\xe5\xed\x7f\xa80\x0c\xbd\xf9\x03'
p49
baVMelecta albifrons
p50
aVhttps://upload.wikimedia.org/wikipedia/commons/0/0a/Melecta_albifrons_5.JPG
p51
aa(lp52
g2
(g3
g4
Ntp53
Rp54
S'Y\x19\xad\xe5\xed\x7f\xa80\x0c\xbd\xf9\x04'
p55
baVParabuthus transvaalicus
p56
aVhttps://upload.wikimedia.org/wikipedia/commons/3/3e/Parabuthus_transvaalicus_%28male%29.jpg
p57
aa(lp58
g2
(g3
g4
Ntp59
Rp60
S'Y\x19\xad\xe5\xed\x7f\xa80\x0c\xbd\xf9\x06'
p61
baVConus pulicarius
p62
aVhttps://upload.wikimedia.org/wikipedia/commons/0/0f/Conus_pulicarius_1.jpg
p63
aa(lp64
g2
(g3
g4
Ntp65
Rp66
S'Y\x19\xad\xe5\xed\x7f\xa80\x0c\xbd\xf9\x07'
p67
baVConus buxeus loroisii
p68
aVhttps://upload.wikimedia.org/wikipedia/commons/1/1d/Conus_buxeus_loroisii_001.jpg
p69
aa(lp70
g2
(g3
g4
Ntp71
Rp72
S'Y\x19\xad\xe5\xed\x7f\xa80\x0c\xbd\xf9\x08'
p73
baVAndroctonus crassicauda
p74
aVhttps://upload.wikimedia.org/wikipedia/commons/9/93/Black_scorpion.jpg
p75
aa(lp76
g2
(g3
g4
Ntp77
Rp78
S'Y\x19\xad\xe5\xed\x7f\xa80\x0c\xbd\xf9\n'
p79
baVBombus lapidarius
p80
aVhttps://upload.wikimedia.org/wikipedia/commons/c/cb/Bee_on_Yellow_Flower.jpg
p81
aa(lp82
g2
(g3
g4
Ntp83
Rp84
S'Y\x19\xad\xe5\xed\x7f\xa80\x0c\xbd\xf9\x0b'
p85
baVBombus terrestris
p86
aVhttps://upload.wikimedia.org/wikipedia/commons/4/4a/Bumblebee_October_2007-3a.jpg
p87
aa(lp88
g2
(g3
g4
Ntp89
Rp90
S'Y\x19\xad\xe5\xed\x7f\xa80\x0c\xbd\xf9\x0c'
p91
baVVespula pensylvanica
p92
aVhttps://upload.wikimedia.org/wikipedia/commons/4/40/Vespula_pensylvanica-Queen-1.jpg
p93
aa(lp94
g2
(g3
g4
Ntp95
Rp96
S'Y\x19\xad\xe5\xed\x7f\xa80\x0c\xbd\xf9\r'
p97
baVHeterometrus spinifer
p98
aVhttps://upload.wikimedia.org/wikipedia/commons/0/0b/Scorpionidae_-_Heterometrus_spinifer.JPG
p99
aa(lp100
g2
(g3
g4
Ntp101
Rp102
S'Y\x19\xad\xe5\xed\x7f\xa80\x0c\xbd\xf9\x11'
p103
baVVespula squamosa
p104
aVhttps://upload.wikimedia.org/wikipedia/commons/2/2f/Southern_Yellowjacket_%28Vespula_squamosa%29_%287225863346%29.jpg
p105
aa(lp106
g2
(g3
g4
Ntp107
Rp108
S'Y\x19\xad\xe5\xed\x7f\xa80\x0c\xbd\xf9\x12'
p109
baVOpistophthalmus carinatus
p110
aVhttps://upload.wikimedia.org/wikipedia/commons/7/72/Opistophthalmus_carinatus%2C_Usakos.jpg
p111
aa(lp112
g2
(g3
g4
Ntp113
Rp114
S'Y\x19\xad\xe5\xed\x7f\xa80\x0c\xbd\xf9\x14'
p115
baVHottentotta tamulus sindicus
p116
aVhttps://upload.wikimedia.org/wikipedia/commons/8/83/Hydrogen_discharge_tube.jpg
p117
aa(lp118
g2
(g3
g4
Ntp119
Rp120
S'Y\x19\xad\xe5\xed\x7f\xa80\x0c\xbd\xf9\x15'
p121
baVConus radiatus
p122
aVhttps://upload.wikimedia.org/wikipedia/commons/a/a5/Conus_radiatus_1.jpg
p123
aa(lp124
g2
(g3
g4
Ntp125
Rp126
S'Y\x19\xad\xe5\xed\x7f\xa80\x0c\xbd\xf9\x16'
p127
baVCyphononyx dorsalis
p128
aVhttps://upload.wikimedia.org/wikipedia/commons/1/1c/Pompilidae_-_Cyphononyx_optimus.JPG
p129
aa(lp130
g2
(g3
g4
Ntp131
Rp132
S'Y\x19\xad\xe5\xed\x7f\xa80\x0c\xbd\xf9\x17'
p133
baVTrimeresurus purpureomaculatus
p134
aVhttps://upload.wikimedia.org/wikipedia/commons/d/d8/Mangrove_Pit_Viper.jpg
p135
aa(lp136
g2
(g3
g4
Ntp137
Rp138
S'Y\x19\xad\xe5\xed\x7f\xa80\x0c\xbd\xf9\x18'
p139
baVConus natalis
p140
aVhttps://upload.wikimedia.org/wikipedia/commons/d/d0/Conus_natalis_1.jpg
p141
aa(lp142
g2
(g3
g4
Ntp143
Rp144
S'Y\x19\xad\xe5\xed\x7f\xa80\x0c\xbd\xf9\x19'
p145
baVConus mus
p146
aVhttps://upload.wikimedia.org/wikipedia/commons/4/4b/Conus_mus_1.jpg
p147
aa(lp148
g2
(g3
g4
Ntp149
Rp150
S'Y\x19\xad\xe5\xed\x7f\xa80\x0c\xbd\xf9\x1b'
p151
baVLatrodectus geometricus
p152
aVhttps://upload.wikimedia.org/wikipedia/commons/d/d7/Brown_widow_spider_Latrodectus_geometricus_low_oblique_view.jpg
p153
aa(lp154
g2
(g3
g4
Ntp155
Rp156
S'Y\x19\xad\xe5\xed\x7f\xa80\x0c\xbd\xf9\x1c'
p157
baVAspidelaps scutatus
p158
aVhttps://upload.wikimedia.org/wikipedia/commons/0/02/Shieldnosecobra.jpg
p159
aa(lp160
g2
(g3
g4
Ntp161
Rp162
S'Y\x19\xad\xe5\xed\x7f\xa80\x0c\xbd\xf9\x1d'
p163
baVAcanthophis antarcticus
p164
aVhttps://upload.wikimedia.org/wikipedia/commons/d/df/Acanthophis_antarcticus_drawing.jpg
p165
aa(lp166
g2
(g3
g4
Ntp167
Rp168
S'Y\x19\xad\xe5\xed\x7f\xa80\x0c\xbd\xf9\x1e'
p169
baVBungarus candidus
p170
aVhttps://upload.wikimedia.org/wikipedia/commons/3/30/COLLECTIE_TROPENMUSEUM_Giftslang_%27Oelar_welang%27_Bungarus_candidus_TMnr_10006448.jpg
p171
aa(lp172
g2
(g3
g4
Ntp173
Rp174
S'Y\x19\xad\xe5\xed\x7f\xa80\x0c\xbd\xf9\x1f'
p175
baVTityus stigmurus
p176
aVhttps://upload.wikimedia.org/wikipedia/commons/e/e5/Tityus_stigmurus_20140919.JPG
p177
aa(lp178
g2
(g3
g4
Ntp179
Rp180
S'Y\x19\xad\xe5\xed\x7f\xa80\x0c\xbd\xf9 '
p181
baVTityus bahiensis
p182
aVhttps://upload.wikimedia.org/wikipedia/commons/a/a4/Tityus_Bahiensis_Brasil.jpg
p183
aa(lp184
g2
(g3
g4
Ntp185
Rp186
S'Y\x19\xad\xe5\xed\x7f\xa80\x0c\xbd\xf9!'
p187
baVOxyuranus microlepidotus
p188
aVhttps://upload.wikimedia.org/wikipedia/commons/f/fe/Fierce_Snake-Oxyuranus_microlepidotus.jpg
p189
aa(lp190
g2
(g3
g4
Ntp191
Rp192
S'Y\x19\xad\xe5\xed\x7f\xa80\x0c\xbd\xf9"'
p193
baVLychas mucronatus
p194
aVhttps://upload.wikimedia.org/wikipedia/commons/d/d1/Lychas_mucronatus.JPG
p195
aa(lp196
g2
(g3
g4
Ntp197
Rp198
S'Y\x19\xad\xe5\xed\x7f\xa80\x0c\xbd\xf9#'
p199
baVCrotalus scutulatus scutulatus
p200
aVhttps://upload.wikimedia.org/wikipedia/commons/7/72/Coal_anthracite.jpg
p201
aa(lp202
g2
(g3
g4
Ntp203
Rp204
S'Y\x19\xad\xe5\xed\x7f\xa80\x0c\xbd\xf9$'
p205
baVBothrops matogrossensis
p206
aVhttps://upload.wikimedia.org/wikipedia/commons/e/e8/Mato_Grosso_Lancehead_%28Bothrops_matogrossensis%29_%28Courtesy_of_Luiz_Vicente_Campos%29_%2827909852734%29.jpg
p207
aa(lp208
g2
(g3
g4
Ntp209
Rp210
S'Y\x19\xad\xe5\xed\x7f\xa80\x0c\xbd\xf9%'
p211
baVCrotalus ruber ruber
p212
aVhttps://upload.wikimedia.org/wikipedia/commons/7/72/Coal_anthracite.jpg
p213
aa(lp214
g2
(g3
g4
Ntp215
Rp216
S"Y\x19\xad\xe5\xed\x7f\xa80\x0c\xbd\xf9'"
p217
baVBothrops alternatus
p218
aVhttps://upload.wikimedia.org/wikipedia/commons/c/cb/Bothrops_alternatus_in_Brazil_b.jpg
p219
aa(lp220
g2
(g3
g4
Ntp221
Rp222
S'Y\x19\xad\xe5\xed\x7f\xa80\x0c\xbd\xf9('
p223
baVLycosa erythrognatha
p224
aVhttps://upload.wikimedia.org/wikipedia/commons/5/5c/Aranha_Lycosa_erythrognatha.jpg
p225
aa(lp226
g2
(g3
g4
Ntp227
Rp228
S'Y\x19\xad\xe5\xed\x7f\xa80\x0c\xbd\xf9)'
p229
baVAgelaia pallipes pallipes
p230
aVhttps://upload.wikimedia.org/wikipedia/commons/d/db/Latin_alphabet_Aa.png
p231
aa(lp232
g2
(g3
g4
Ntp233
Rp234
S'Y\x19\xad\xe5\xed\x7f\xa80\x0c\xbd\xf9*'
p235
baVCrotalus atrox
p236
aVhttps://upload.wikimedia.org/wikipedia/commons/d/d7/Crotalus_atrox_USFWS.jpg
p237
aa(lp238
g2
(g3
g4
Ntp239
Rp240
S'Y\x19\xad\xe5\xed\x7f\xa80\x0c\xbd\xf9+'
p241
baVConus aulicus
p242
aVhttps://upload.wikimedia.org/wikipedia/commons/f/f4/Conus_aulicus_001.jpg
p243
aa(lp244
g2
(g3
g4
Ntp245
Rp246
S'Y\x19\xad\xe5\xed\x7f\xa80\x0c\xbd\xf9,'
p247
baVTerebra subulata
p248
aVhttps://upload.wikimedia.org/wikipedia/commons/6/68/Terebra_subulata_01.JPG
p249
aa(lp250
g2
(g3
g4
Ntp251
Rp252
S'Y\x19\xad\xe5\xed\x7f\xa80\x0c\xbd\xf9-'
p253
baVCerberus rynchops
p254
aVhttps://upload.wikimedia.org/wikipedia/commons/1/1e/Cerberus_schneiderii.jpg
p255
aa(lp256
g2
(g3
g4
Ntp257
Rp258
S'Y\x19\xad\xe5\xed\x7f\xa80\x0c\xbd\xf9.'
p259
baVConus vexillum
p260
aVhttps://upload.wikimedia.org/wikipedia/commons/6/6d/Rhizoconus_vexillum_01.JPG
p261
aa(lp262
g2
(g3
g4
Ntp263
Rp264
S'Y\x19\xad\xe5\xed\x7f\xa80\x0c\xbd\xf9/'
p265
baVCentruroides gracilis
p266
aVhttps://upload.wikimedia.org/wikipedia/commons/6/6c/Centruroides_gracilis.jpg
p267
aa(lp268
g2
(g3
g4
Ntp269
Rp270
S'Y\x19\xad\xe5\xed\x7f\xa80\x0c\xbd\xf90'
p271
baVConus capitaneus
p272
aVhttps://upload.wikimedia.org/wikipedia/commons/6/6a/Conus_capitaneus.shell001.jpg
p273
aa(lp274
g2
(g3
g4
Ntp275
Rp276
S'Y\x19\xad\xe5\xed\x7f\xa80\x0c\xbd\xf91'
p277
baVConus bullatus
p278
aVhttps://upload.wikimedia.org/wikipedia/commons/9/9e/Textilia_bullata_01.JPG
p279
aa(lp280
g2
(g3
g4
Ntp281
Rp282
S'Y\x19\xad\xe5\xed\x7f\xa80\x0c\xbd\xf92'
p283
baVOxyuranus scutellatus
p284
aVhttps://upload.wikimedia.org/wikipedia/commons/a/a9/Costal_Tiapan_at_Taronga_Zoo.jpg
p285
aa(lp286
g2
(g3
g4
Ntp287
Rp288
S'Y\x19\xad\xe5\xed\x7f\xa80\x0c\xbd\xf93'
p289
baVTityus trivittatus
p290
aVhttps://upload.wikimedia.org/wikipedia/commons/6/63/Tityus_trivittatus_-_03.jpg
p291
aa(lp292
g2
(g3
g4
Ntp293
Rp294
S'Y\x19\xad\xe5\xed\x7f\xa80\x0c\xbd\xf94'
p295
baVCerastes vipera
p296
aVhttps://upload.wikimedia.org/wikipedia/commons/a/a6/Cerastes_vipera.jpg
p297
aa(lp298
g2
(g3
g4
Ntp299
Rp300
S'Y\x19\xad\xe5\xed\x7f\xa80\x0c\xbd\xf95'
p301
baVConus delessertii
p302
aVhttps://upload.wikimedia.org/wikipedia/commons/b/bd/Conus_delessertii_1.jpg
p303
aa(lp304
g2
(g3
g4
Ntp305
Rp306
S'Y\x19\xad\xe5\xed\x7f\xa80\x0c\xbd\xf96'
p307
baVBitis nasicornis
p308
aVhttps://upload.wikimedia.org/wikipedia/commons/9/98/Rhinocerous_viper_-_Bitis_nasicornis.jpg
p309
aa(lp310
g2
(g3
g4
Ntp311
Rp312
S'Y\x19\xad\xe5\xed\x7f\xa80\x0c\xbd\xf97'
p313
baVBitis gabonica
p314
aVhttps://upload.wikimedia.org/wikipedia/commons/0/0b/GaboonViper.jpg
p315
aa(lp316
g2
(g3
g4
Ntp317
Rp318
S'Y\x19\xad\xe5\xed\x7f\xa80\x0c\xbd\xf98'
p319
baVCerastes cerastes
p320
aVhttps://upload.wikimedia.org/wikipedia/commons/c/c9/Hornviper_Cerastes_cerastes.jpg
p321
aa(lp322
g2
(g3
g4
Ntp323
Rp324
S'Y\x19\xad\xe5\xed\x7f\xa80\x0c\xbd\xf99'
p325
baVVipera berus
p326
aVhttps://upload.wikimedia.org/wikipedia/commons/d/d5/Vipera_berus_%28Marek_Szczepanek%29.jpg
p327
aa(lp328
g2
(g3
g4
Ntp329
Rp330
S'Y\x19\xad\xe5\xed\x7f\xa80\x0c\xbd\xf9;'
p331
baVProtobothrops jerdonii
p332
aVhttps://upload.wikimedia.org/wikipedia/commons/6/6e/Protobothropsjerdonii.jpg
p333
aa(lp334
g2
(g3
g4
Ntp335
Rp336
S'Y\x19\xad\xe5\xed\x7f\xa80\x0c\xbd\xf9<'
p337
baVConus amadis
p338
aVhttps://upload.wikimedia.org/wikipedia/commons/2/29/Conus_amadis_1.jpg
p339
aa(lp340
g2
(g3
g4
Ntp341
Rp342
S'Y\x19\xad\xe5\xed\x7f\xa80\x0c\xbd\xf9>'
p343
baVRhynchium brunneum
p344
aVhttps://upload.wikimedia.org/wikipedia/commons/6/6c/Rhynchium_brunneum%2C_Taman_Sari%2C_2014-05-19.jpg
p345
aa(lp346
g2
(g3
g4
Ntp347
Rp348
S'Y\x19\xad\xe5\xed\x7f\xa80\x0c\xbd\xf9?'
p349
baVNotechis scutatus scutatus
p350
aVhttps://upload.wikimedia.org/wikipedia/commons/5/5c/CompassRose16_white.PNG
p351
aa(lp352
g2
(g3
g4
Ntp353
Rp354
S'Y\x19\xad\xe5\xed\x7f\xa80\x0c\xbd\xf9B'
p355
baVParabuthus granulatus
p356
aVhttps://upload.wikimedia.org/wikipedia/commons/3/3e/Granulated_Thick-tailed_Scorpion_%28Parabuthus_granulatus%29_%22_Brown_Phase_%22_%287003255311%29.jpg
p357
aa(lp358
g2
(g3
g4
Ntp359
Rp360
S'Y\x19\xad\xe5\xed\x7f\xa80\x0c\xbd\xf9C'
p361
baVHydrophis stokesii
p362
aVhttps://upload.wikimedia.org/wikipedia/commons/1/10/Hydrophis_-_Brehms.jpg
p363
aa(lp364
g2
(g3
g4
Ntp365
Rp366
S'Y\x19\xad\xe5\xed\x7f\xa80\x0c\xbd\xf9E'
p367
baVTityus discrepans
p368
aVhttps://upload.wikimedia.org/wikipedia/commons/1/13/Tityus_discrepans.jpg
p369
aa(lp370
g2
(g3
g4
Ntp371
Rp372
S'Y\x19\xad\xe5\xed\x7f\xa80\x0c\xbd\xf9F'
p373
baVPhyllomedusa azurea
p374
aVhttps://upload.wikimedia.org/wikipedia/commons/d/d5/Phyllomedusa_azurea01.jpg
p375
aa(lp376
g2
(g3
g4
Ntp377
Rp378
S'Y\x19\xad\xe5\xed\x7f\xa80\x0c\xbd\xf9H'
p379
baVNaja haje haje
p380
aVhttps://upload.wikimedia.org/wikipedia/commons/5/5c/CompassRose16_white.PNG
p381
aa(lp382
g2
(g3
g4
Ntp383
Rp384
S'Y\x19\xad\xe5\xed\x7f\xa80\x0c\xbd\xf9I'
p385
baVConus abbreviatus
p386
aVhttps://upload.wikimedia.org/wikipedia/commons/1/1f/Conus_abbreviatus_1.jpg
p387
aa(lp388
g2
(g3
g4
Ntp389
Rp390
S'Y\x19\xad\xe5\xed\x7f\xa80\x0c\xbd\xf9J'
p391
baVConus ferrugineus
p392
aVhttps://upload.wikimedia.org/wikipedia/commons/e/ec/Conus_ferrugineus_002.jpg
p393
aa(lp394
g2
(g3
g4
Ntp395
Rp396
S'Y\x19\xad\xe6\xed\x7f\xa80\x0c\xbd\xf9L'
p397
baVConus cancellatus
p398
aVhttps://upload.wikimedia.org/wikipedia/commons/1/1b/Conus_cancellatus_1.jpg
p399
aa(lp400
g2
(g3
g4
Ntp401
Rp402
S'Y\x19\xad\xe6\xed\x7f\xa80\x0c\xbd\xf9M'
p403
baVCinguloterebra anilis
p404
aVhttps://upload.wikimedia.org/wikipedia/commons/3/30/Cinguloterebra_anilis_shell.png
p405
aa(lp406
g2
(g3
g4
Ntp407
Rp408
S'Y\x19\xad\xe6\xed\x7f\xa80\x0c\xbd\xf9N'
p409
baVGrammostola rosea
p410
aVhttps://upload.wikimedia.org/wikipedia/commons/a/ab/Grammostola_cf._porteri_adult_male.jpg
p411
aa(lp412
g2
(g3
g4
Ntp413
Rp414
S'Y\x19\xad\xe6\xed\x7f\xa80\x0c\xbd\xf9O'
p415
baVSicarius terrosus
p416
aVhttps://upload.wikimedia.org/wikipedia/commons/b/bf/Sicarius_terrosus_1.JPG
p417
aa(lp418
g2
(g3
g4
Ntp419
Rp420
S'Y\x19\xad\xe6\xed\x7f\xa80\x0c\xbd\xf9Q'
p421
baVConus purpurascens
p422
aVhttps://upload.wikimedia.org/wikipedia/commons/7/7c/Conus_purpurascens.jpg
p423
aa(lp424
g2
(g3
g4
Ntp425
Rp426
S'Y\x19\xad\xe6\xed\x7f\xa80\x0c\xbd\xf9T'
p427
baVBothrops pictus
p428
aVhttps://upload.wikimedia.org/wikipedia/commons/c/c5/Bothrops_pictus.JPG
p429
aa(lp430
g2
(g3
g4
Ntp431
Rp432
S'Y\x19\xad\xe6\xed\x7f\xa80\x0c\xbd\xf9U'
p433
baVSistrurus miliarius streckeri
p434
aVhttps://upload.wikimedia.org/wikipedia/commons/8/80/Sistrurus_miliarius_streckeri.jpg
p435
aa(lp436
g2
(g3
g4
Ntp437
Rp438
S'Y\x19\xad\xe6\xed\x7f\xa80\x0c\xbd\xf9V'
p439
baVPhyllomedusa hypochondrialis
p440
aVhttps://upload.wikimedia.org/wikipedia/commons/f/f2/Phyllomedusa_hypochondrialis.jpg
p441
aa(lp442
g2
(g3
g4
Ntp443
Rp444
S'Y\x19\xad\xe6\xed\x7f\xa80\x0c\xbd\xf9W'
p445
baVNaja naja
p446
aVhttps://upload.wikimedia.org/wikipedia/commons/6/66/Indiancobra.jpg
p447
aa(lp448
g2
(g3
g4
Ntp449
Rp450
S'Y\x19\xad\xe6\xed\x7f\xa80\x0c\xbd\xf9X'
p451
baVApis mellifera carnica
p452
aVhttps://upload.wikimedia.org/wikipedia/commons/a/a1/Apis_mellifera_carnica_worker_hive_entrance_3.jpg
p453
aa(lp454
g2
(g3
g4
Ntp455
Rp456
S'Y\x19\xad\xe6\xed\x7f\xa80\x0c\xbd\xf9Y'
p457
baVConus australis
p458
aVhttps://upload.wikimedia.org/wikipedia/commons/7/78/Conus_australis_1.jpg
p459
aa(lp460
g2
(g3
g4
Ntp461
Rp462
S'Y\x19\xad\xe6\xed\x7f\xa80\x0c\xbd\xf9Z'
p463
baVConus pictus
p464
aVhttps://upload.wikimedia.org/wikipedia/commons/7/76/Conus_pictus_1.jpg
p465
aa(lp466
g2
(g3
g4
Ntp467
Rp468
S'Y\x19\xad\xe6\xed\x7f\xa80\x0c\xbd\xf9['
p469
baVLoxosceles laeta
p470
aVhttps://upload.wikimedia.org/wikipedia/commons/a/a7/Loxosceles.laeta.jpg
p471
aa(lp472
g2
(g3
g4
Ntp473
Rp474
S'Y\x19\xad\xe6\xed\x7f\xa80\x0c\xbd\xf9^'
p475
baVConus memiae
p476
aVhttps://upload.wikimedia.org/wikipedia/commons/1/1c/Conus_memiae_1.jpg
p477
aa(lp478
g2
(g3
g4
Ntp479
Rp480
S'Y\x19\xad\xe6\xed\x7f\xa80\x0c\xbd\xf9`'
p481
baVMicrurus corallinus
p482
aVhttps://upload.wikimedia.org/wikipedia/commons/7/78/Cobra-Coral_%28Micrurus_corallinus%29.jpg
p483
aa(lp484
g2
(g3
g4
Ntp485
Rp486
S'Y\x19\xad\xe6\xed\x7f\xa80\x0c\xbd\xf9a'
p487
baVPhilodryas patagoniensis
p488
aVhttps://upload.wikimedia.org/wikipedia/commons/0/03/Callirhinus_patagoniensis.jpg
p489
aa(lp490
g2
(g3
g4
Ntp491
Rp492
S'Y\x19\xad\xe6\xed\x7f\xa80\x0c\xbd\xf9c'
p493
baVChelonus sp. nr. curvimaculatus
p494
aVhttps://upload.wikimedia.org/wikipedia/commons/7/72/Coal_anthracite.jpg
p495
aa(lp496
g2
(g3
g4
Ntp497
Rp498
S'Y\x19\xad\xe6\xed\x7f\xa80\x0c\xbd\xf9f'
p499
baVAtheris nitschei
p500
aVhttps://upload.wikimedia.org/wikipedia/commons/e/e2/Atheris_nitschei.jpg
p501
aa(lp502
g2
(g3
g4
Ntp503
Rp504
S'Y\x19\xad\xe6\xed\x7f\xa80\x0c\xbd\xf9g'
p505
baVAtheris squamigera
p506
aVhttps://upload.wikimedia.org/wikipedia/commons/c/cd/Variable_bush_viper.jpg
p507
aa(lp508
g2
(g3
g4
Ntp509
Rp510
S'Y\x19\xad\xe6\xed\x7f\xa80\x0c\xbd\xf9h'
p511
baVEristicophis macmahoni
p512
aVhttps://upload.wikimedia.org/wikipedia/commons/b/b8/Eristicophis_macmahonii.jpg
p513
aa(lp514
g2
(g3
g4
Ntp515
Rp516
S'Y\x19\xad\xe6\xed\x7f\xa80\x0c\xbd\xf9j'
p517
baVLiocheles australasiae
p518
aVhttps://upload.wikimedia.org/wikipedia/commons/8/89/Liocheles_australasiae_1800.jpg
p519
aa(lp520
g2
(g3
g4
Ntp521
Rp522
S'Y\x19\xad\xe6\xed\x7f\xa80\x0c\xbd\xf9k'
p523
baVBrachypelma smithi
p524
aVhttps://upload.wikimedia.org/wikipedia/commons/7/7b/Brachypelma_smithi_2009_G09.jpg
p525
aa(lp526
g2
(g3
g4
Ntp527
Rp528
S'Y\x19\xad\xe6\xed\x7f\xa80\x0c\xbd\xf9m'
p529
baVMicrurus altirostris
p530
aVhttps://upload.wikimedia.org/wikipedia/commons/3/37/Serpiente_de_Coral.JPG
p531
aa(lp532
g2
(g3
g4
Ntp533
Rp534
S'Y\x19\xad\xe6\xed\x7f\xa80\x0c\xbd\xf9o'
p535
baVCrotalus durissus cascavella
p536
aVhttps://upload.wikimedia.org/wikipedia/commons/7/72/Coal_anthracite.jpg
p537
aa(lp538
g2
(g3
g4
Ntp539
Rp540
S'Y\x19\xad\xe7\xed\x7f\xa80\x0c\xbd\xf9q'
p541
baVCrotalus durissus cumanensis
p542
aVhttps://upload.wikimedia.org/wikipedia/commons/7/72/Coal_anthracite.jpg
p543
aa(lp544
g2
(g3
g4
Ntp545
Rp546
S'Y\x19\xad\xe7\xed\x7f\xa80\x0c\xbd\xf9r'
p547
baVVespa magnifica
p548
aVhttps://upload.wikimedia.org/wikipedia/commons/0/00/Oosterse_hoornaar_Vespa_orientalis_%281%29.jpg
p549
aa(lp550
g2
(g3
g4
Ntp551
Rp552
S'Y\x19\xad\xe7\xed\x7f\xa80\x0c\xbd\xf9t'
p553
baVConus floridulus
p554
aVhttps://upload.wikimedia.org/wikipedia/commons/2/27/Lividoconus_floridulus_01.JPG
p555
aa(lp556
g2
(g3
g4
Ntp557
Rp558
S'Y\x19\xad\xe7\xed\x7f\xa80\x0c\xbd\xf9u'
p559
baVConus catus
p560
aVhttps://upload.wikimedia.org/wikipedia/commons/c/c5/Conus_catus_001.jpg
p561
aa(lp562
g2
(g3
g4
Ntp563
Rp564
S'Y\x19\xad\xe7\xed\x7f\xa80\x0c\xbd\xf9v'
p565
baVConus planorbis
p566
aVhttps://upload.wikimedia.org/wikipedia/commons/4/48/Conus_planorbis.shell001.jpg
p567
aa(lp568
g2
(g3
g4
Ntp569
Rp570
S'Y\x19\xad\xe7\xed\x7f\xa80\x0c\xbd\xf9w'
p571
baVConus consors
p572
aVhttps://upload.wikimedia.org/wikipedia/commons/6/6f/Conus_consors_daullei_001.jpg
p573
aa(lp574
g2
(g3
g4
Ntp575
Rp576
S'Y\x19\xad\xe7\xed\x7f\xa80\x0c\xbd\xf9x'
p577
baVVespula germanica
p578
aVhttps://upload.wikimedia.org/wikipedia/commons/9/93/European_wasp_white_bg.jpg
p579
aa(lp580
g2
(g3
g4
Ntp581
Rp582
S'Y\x19\xad\xe7\xed\x7f\xa80\x0c\xbd\xf9y'
p583
baVConus ammiralis
p584
aVhttps://upload.wikimedia.org/wikipedia/commons/7/72/Conus_ammiralis_1.jpg
p585
aa(lp586
g2
(g3
g4
Ntp587
Rp588
S'Y\x19\xad\xe7\xed\x7f\xa80\x0c\xbd\xf9{'
p589
baVPotamotrygon orbignyi
p590
aVhttps://upload.wikimedia.org/wikipedia/commons/1/1d/Potamotrygon_national_zoo2.jpg
p591
aa(lp592
g2
(g3
g4
Ntp593
Rp594
S'Y\x19\xad\xe7\xed\x7f\xa80\x0c\xbd\xf9}'
p595
baVTerebra variegata
p596
aVhttps://upload.wikimedia.org/wikipedia/commons/8/81/Terebra_variegata_001.jpg
p597
aa(lp598
g2
(g3
g4
Ntp599
Rp600
S'Y\x19\xad\xe7\xed\x7f\xa80\x0c\xbd\xf9~'
p601
baVPandinus cavimanus
p602
aVhttps://upload.wikimedia.org/wikipedia/commons/5/51/Pandinus_cavimanus.jpg
p603
aa(lp604
g2
(g3
g4
Ntp605
Rp606
S'Y\x19\xad\xe7\xed\x7f\xa80\x0c\xbd\xf9\x7f'
p607
baVScorpio palmatus
p608
aVhttps://upload.wikimedia.org/wikipedia/commons/0/03/RR5111-0118R.gif
p609
aa(lp610
g2
(g3
g4
Ntp611
Rp612
S'Y\x19\xad\xe7\xed\x7f\xa80\x0c\xbd\xf9\x80'
p613
baVCrotalus oreganus abyssus
p614
aVhttps://upload.wikimedia.org/wikipedia/commons/5/5a/Grand_Canyon_pink_rattlesnake.jpg
p615
aa(lp616
g2
(g3
g4
Ntp617
Rp618
S'Y\x19\xad\xe7\xed\x7f\xa80\x0c\xbd\xf9\x81'
p619
baVCrotalus oreganus lutosus
p620
aVhttps://upload.wikimedia.org/wikipedia/commons/5/51/Rattlesnake_%28Marshal_Hedin%29.jpg
p621
aa(lp622
g2
(g3
g4
Ntp623
Rp624
S'Y\x19\xad\xe7\xed\x7f\xa80\x0c\xbd\xf9\x83'
p625
baVMicrurus lemniscatus
p626
aVhttps://upload.wikimedia.org/wikipedia/commons/4/43/Micrurus_lemniscatus_head.jpg
p627
aa(lp628
g2
(g3
g4
Ntp629
Rp630
S'Y\x19\xad\xe7\xed\x7f\xa80\x0c\xbd\xf9\x84'
p631
baVConus betulinus
p632
aVhttps://upload.wikimedia.org/wikipedia/commons/0/07/WLA_hmns_Conus_betulinus.jpg
p633
aa(lp634
g2
(g3
g4
Ntp635
Rp636
S'Y\x19\xad\xe7\xed\x7f\xa80\x0c\xbd\xf9\x86'
p637
baVHoplocephalus stephensii
p638
aVhttps://upload.wikimedia.org/wikipedia/commons/8/8b/Stephen%27s_Banded_Snake_%28Hoplocephalus_stephensii%29_%2810559326416%29.jpg
p639
aa(lp640
g2
(g3
g4
Ntp641
Rp642
S'Y\x19\xad\xe7\xed\x7f\xa80\x0c\xbd\xf9\x87'
p643
baVOdontobuthus doriae
p644
aVhttps://upload.wikimedia.org/wikipedia/commons/a/ae/Buthidae_-_Odontobuthus_doriae.JPG
p645
aa(lp646
g2
(g3
g4
Ntp647
Rp648
S'Y\x19\xad\xe7\xed\x7f\xa80\x0c\xbd\xf9\x88'
p649
baVDispholidus typus
p650
aVhttps://upload.wikimedia.org/wikipedia/commons/2/25/Dispholidus_typus.jpg
p651
aa(lp652
g2
(g3
g4
Ntp653
Rp654
S'Y\x19\xad\xe7\xed\x7f\xa80\x0c\xbd\xf9\x89'
p655
baVKukulcania hibernalis
p656
aVhttps://upload.wikimedia.org/wikipedia/commons/5/56/Kukulcaniahibernalis.JPG
p657
aa(lp658
g2
(g3
g4
Ntp659
Rp660
S'Y\x19\xad\xe7\xed\x7f\xa80\x0c\xbd\xf9\x8a'
p661
baVMesobuthus gibbosus
p662
aVhttps://upload.wikimedia.org/wikipedia/commons/e/e2/A_Mesobuthus_gibbosus_feeding_on_Euscorpius_avcii_-_ZooKeys-219-063-g010.jpeg
p663
aa(lp664
g2
(g3
g4
Ntp665
Rp666
S'Y\x19\xad\xe7\xed\x7f\xa80\x0c\xbd\xf9\x8b'
p667
baVDrysdalia coronoides
p668
aVhttps://upload.wikimedia.org/wikipedia/commons/c/cb/Drysdalia_coronoides.jpg
p669
aa(lp670
g2
(g3
g4
Ntp671
Rp672
S'Y\x19\xad\xe7\xed\x7f\xa80\x0c\xbd\xf9\x8c'
p673
baVTrimeresurus albolabris
p674
aVhttps://upload.wikimedia.org/wikipedia/commons/1/1d/Trimeresurus_albolabris_male.jpg
p675
aa(lp676
g2
(g3
g4
Ntp677
Rp678
S'Y\x19\xad\xe7\xed\x7f\xa80\x0c\xbd\xf9\x8d'
p679
baVTrimeresurus gramineus
p680
aVhttps://upload.wikimedia.org/wikipedia/commons/f/fb/Cryptelytrops_albolabris.jpg
p681
aa(lp682
g2
(g3
g4
Ntp683
Rp684
S'Y\x19\xad\xe7\xed\x7f\xa80\x0c\xbd\xf9\x8e'
p685
baVSistrurus catenatus edwardsii
p686
aVhttps://upload.wikimedia.org/wikipedia/commons/e/e6/Sistrurus-catenatus-edwardsii_CDC-small.jpg
p687
aa(lp688
g2
(g3
g4
Ntp689
Rp690
S'Y\x19\xad\xe7\xed\x7f\xa80\x0c\xbd\xf9\x8f'
p691
baVNaja mossambica
p692
aVhttps://upload.wikimedia.org/wikipedia/commons/1/10/Mfezi_2352859459.jpg
p693
aa(lp694
g2
(g3
g4
Ntp695
Rp696
S'Y\x19\xad\xe7\xed\x7f\xa80\x0c\xbd\xf9\x90'
p697
baVBothrops jararacussu
p698
aVhttps://upload.wikimedia.org/wikipedia/commons/b/b2/Bothrops_jararacussu.jpg
p699
aa(lp700
g2
(g3
g4
Ntp701
Rp702
S'Y\x19\xad\xe7\xed\x7f\xa80\x0c\xbd\xf9\x91'
p703
baVOvophis okinavensis
p704
aVhttps://upload.wikimedia.org/wikipedia/commons/4/4f/%E3%83%92%E3%83%A1%E3%83%8F%E3%83%96.jpg
p705
aa(lp706
g2
(g3
g4
Ntp707
Rp708
S'Y\x19\xad\xe7\xed\x7f\xa80\x0c\xbd\xf9\x92'
p709
baVNaja melanoleuca
p710
aVhttps://upload.wikimedia.org/wikipedia/commons/d/dc/MP-Naja_melanoleuca_2.jpg
p711
aa(lp712
g2
(g3
g4
Ntp713
Rp714
S'Y\x19\xad\xe7\xed\x7f\xa80\x0c\xbd\xf9\x93'
p715
baVAcanthophis sp. (strain Seram)
p716
aVhttps://upload.wikimedia.org/wikipedia/commons/d/db/Latin_alphabet_Aa.png
p717
aa(lp718
g2
(g3
g4
Ntp719
Rp720
S'Y\x19\xad\xe7\xed\x7f\xa80\x0c\xbd\xf9\x96'
p721
baVCelestus warreni
p722
aVhttps://upload.wikimedia.org/wikipedia/commons/b/b5/Haitian_galliwasp_baby2.jpg
p723
aa(lp724
g2
(g3
g4
Ntp725
Rp726
S'Y\x19\xad\xe7\xed\x7f\xa80\x0c\xbd\xf9\x97'
p727
baVHadronyche modesta
p728
aVhttps://upload.wikimedia.org/wikipedia/commons/7/7f/Victorian_funnelweb02.jpg
p729
aa(lp730
g2
(g3
g4
Ntp731
Rp732
S'Y\x19\xad\xe7\xed\x7f\xa80\x0c\xbd\xf9\x98'
p733
baVAtractaspis microlepidota microlepidota
p734
aVhttps://upload.wikimedia.org/wikipedia/commons/d/db/Latin_alphabet_Aa.png
p735
aa(lp736
g2
(g3
g4
Ntp737
Rp738
S'Y\x19\xad\xe7\xed\x7f\xa80\x0c\xbd\xf9\x9b'
p739
baVSteatoda grossa
p740
aVhttps://upload.wikimedia.org/wikipedia/commons/6/6e/Steatoda.grossa.jpg
p741
aa(lp742
g2
(g3
g4
Ntp743
Rp744
S'Y\x19\xad\xe7\xed\x7f\xa80\x0c\xbd\xf9\x9c'
p745
baVEratigena agrestis
p746
aVhttps://upload.wikimedia.org/wikipedia/commons/9/95/Female-hobo.gif
p747
aa(lp748
g2
(g3
g4
Ntp749
Rp750
S'Y\x19\xad\xe7\xed\x7f\xa80\x0c\xbd\xf9\x9f'
p751
baVVespula vulgaris
p752
aVhttps://upload.wikimedia.org/wikipedia/commons/9/9b/Flying_Vespula_vulgaris.jpg
p753
aa(lp754
g2
(g3
g4
Ntp755
Rp756
S'Y\x19\xad\xe7\xed\x7f\xa80\x0c\xbd\xf9\xa0'
p757
baVVespula lewisii
p758
aVhttps://upload.wikimedia.org/wikipedia/commons/9/93/European_wasp_white_bg.jpg
p759
aa(lp760
g2
(g3
g4
Ntp761
Rp762
S'Y\x19\xad\xe7\xed\x7f\xa80\x0c\xbd\xf9\xa1'
p763
baVVespula maculifrons
p764
aVhttps://upload.wikimedia.org/wikipedia/commons/d/de/48085134.yellowj.web.jpg
p765
aa(lp766
g2
(g3
g4
Ntp767
Rp768
S'Y\x19\xad\xe8\xed\x7f\xa80\x0c\xbd\xf9\xa2'
p769
baVVespa tropica
p770
aVhttps://upload.wikimedia.org/wikipedia/commons/6/66/Vespa_tropica_sec.jpg
p771
aa(lp772
g2
(g3
g4
Ntp773
Rp774
S'Y\x19\xad\xe8\xed\x7f\xa80\x0c\xbd\xf9\xa4'
p775
baVCerrophidion godmani
p776
aVhttps://upload.wikimedia.org/wikipedia/commons/0/0b/Godman%27s-groefkopadder-2.jpg
p777
aa(lp778
g2
(g3
g4
Ntp779
Rp780
S'Y\x19\xad\xe8\xed\x7f\xa80\x0c\xbd\xf9\xa5'
p781
baVBothriechis schlegelii
p782
aVhttps://upload.wikimedia.org/wikipedia/commons/6/6f/Eyelash_viper444.jpg
p783
aa(lp784
g2
(g3
g4
Ntp785
Rp786
S'Y\x19\xad\xe8\xed\x7f\xa80\x0c\xbd\xf9\xa6'
p787
baVHysterocrates gigas
p788
aVhttps://upload.wikimedia.org/wikipedia/commons/f/f9/Hysterocratesgigas2.jpg
p789
aa(lp790
g2
(g3
g4
Ntp791
Rp792
S'Y\x19\xad\xe8\xed\x7f\xa80\x0c\xbd\xf9\xa7'
p793
baVBothriechis lateralis
p794
aVhttps://upload.wikimedia.org/wikipedia/commons/9/99/Groengele-groefkopadder-5.jpg
p795
aa(lp796
g2
(g3
g4
Ntp797
Rp798
S'Y\x19\xad\xe8\xed\x7f\xa80\x0c\xbd\xf9\xa8'
p799
baVConus adamsonii
p800
aVhttps://upload.wikimedia.org/wikipedia/commons/3/3f/Conus_adamsonii_1.jpg
p801
aa(lp802
g2
(g3
g4
Ntp803
Rp804
S'Y\x19\xad\xe8\xed\x7f\xa80\x0c\xbd\xf9\xa9'
p805
baVCausus rhombeatus
p806
aVhttps://upload.wikimedia.org/wikipedia/commons/7/7b/Causus_rhombeatus00.jpg
p807
aa(lp808
g2
(g3
g4
Ntp809
Rp810
S'Y\x19\xad\xe8\xed\x7f\xa80\x0c\xbd\xf9\xb0'
p811
baVConus imperialis
p812
aVhttps://upload.wikimedia.org/wikipedia/commons/0/08/Rhombiconus_imperialis_01.JPG
p813
aa(lp814
g2
(g3
g4
Ntp815
Rp816
S'Y\x19\xad\xe8\xed\x7f\xa80\x0c\xbd\xf9\xb1'
p817
baVSolenopsis invicta
p818
aVhttps://upload.wikimedia.org/wikipedia/commons/1/18/Fire_ants02.jpg
p819
aa(lp820
g2
(g3
g4
Ntp821
Rp822
S'Y\x19\xad\xe8\xed\x7f\xa80\x0c\xbd\xf9\xb3'
p823
baVAnterhynchium flavomarginatum micado
p824
aVhttps://upload.wikimedia.org/wikipedia/commons/d/db/Latin_alphabet_Aa.png
p825
aa(lp826
g2
(g3
g4
Ntp827
Rp828
S'Y\x19\xad\xe8\xed\x7f\xa80\x0c\xbd\xf9\xb4'
p829
baVVespa bicolor
p830
aVhttps://upload.wikimedia.org/wikipedia/commons/2/22/Vespa_bicolor.jpg
p831
aa(lp832
g2
(g3
g4
Ntp833
Rp834
S'Y\x19\xad\xe8\xed\x7f\xa80\x0c\xbd\xf9\xb5'
p835
baVPolistes dominula
p836
aVhttps://upload.wikimedia.org/wikipedia/commons/9/97/Wasp_March_2008-3.jpg
p837
aa(lp838
g2
(g3
g4
Ntp839
Rp840
S'Y\x19\xad\xe8\xed\x7f\xa80\x0c\xbd\xf9\xb6'
p841
baVHadronyche formidabilis
p842
aVhttps://upload.wikimedia.org/wikipedia/commons/c/c0/AustralianMuseum_spider_specimen_19.JPG
p843
aa(lp844
g2
(g3
g4
Ntp845
Rp846
S'Y\x19\xad\xe8\xed\x7f\xa80\x0c\xbd\xf9\xb8'
p847
baVRhabdophis tigrinus tigrinus
p848
aVhttps://upload.wikimedia.org/wikipedia/commons/9/9c/Latin_alphabet_Rr.png
p849
aa(lp850
g2
(g3
g4
Ntp851
Rp852
S'Y\x19\xad\xe8\xed\x7f\xa80\x0c\xbd\xf9\xba'
p853
baVAndroctonus mauritanicus
p854
aVhttps://upload.wikimedia.org/wikipedia/commons/a/a7/Androctonus_mauretanicus.jpg
p855
aa(lp856
g2
(g3
g4
Ntp857
Rp858
S'Y\x19\xad\xe8\xed\x7f\xa80\x0c\xbd\xf9\xbb'
p859
baVAndroctonus australis
p860
aVhttps://upload.wikimedia.org/wikipedia/commons/5/51/Androctonus_australis_02.JPG
p861
aa(lp862
g2
(g3
g4
Ntp863
Rp864
S'Y\x19\xad\xe8\xed\x7f\xa80\x0c\xbd\xf9\xbd'
p865
baVTrimorphodon biscutatus
p866
aVhttps://upload.wikimedia.org/wikipedia/commons/0/06/Trimorphodon_biscutatus_vilkinsonii.jpg
p867
aa(lp868
g2
(g3
g4
Ntp869
Rp870
S'Y\x19\xad\xe8\xed\x7f\xa80\x0c\xbd\xf9\xbe'
p871
baVMacrovipera lebetina obtusa
p872
aVhttps://upload.wikimedia.org/wikipedia/commons/f/f5/Macrovipera_lebetina_obtusa01.jpg
p873
aa(lp874
g2
(g3
g4
Ntp875
Rp876
S'Y\x19\xad\xe8\xed\x7f\xa80\x0c\xbd\xf9\xbf'
p877
baVConus longurionis
p878
aVhttps://upload.wikimedia.org/wikipedia/commons/7/70/Conus_longurionis_1.jpg
p879
aa(lp880
g2
(g3
g4
Ntp881
Rp882
S'Y\x19\xad\xe8\xed\x7f\xa80\x0c\xbd\xf9\xc1'
p883
baVConus inscriptus
p884
aVhttps://upload.wikimedia.org/wikipedia/commons/6/6b/Conus_inscriptus_001.jpg
p885
aa(lp886
g2
(g3
g4
Ntp887
Rp888
S'Y\x19\xad\xe8\xed\x7f\xa80\x0c\xbd\xf9\xc2'
p889
baVConus tessulatus
p890
aVhttps://upload.wikimedia.org/wikipedia/commons/8/8b/Conus-tessulatus.jpg
p891
aa(lp892
g2
(g3
g4
Ntp893
Rp894
S'Y\x19\xad\xe8\xed\x7f\xa80\x0c\xbd\xf9\xc3'
p895
baVConus gladiator
p896
aVhttps://upload.wikimedia.org/wikipedia/commons/2/21/Gladioconus_gladiator.JPG
p897
aa(lp898
g2
(g3
g4
Ntp899
Rp900
S'Y\x19\xad\xe8\xed\x7f\xa80\x0c\xbd\xf9\xc4'
p901
baVBothrops neuwiedi
p902
aVhttps://upload.wikimedia.org/wikipedia/commons/c/ce/Bothropoides_neuwiedi_-_Jardim_Zool%C3%B3gico_de_Bras%C3%ADlia_-_DSC09973.JPG
p903
aa(lp904
g2
(g3
g4
Ntp905
Rp906
S'Y\x19\xad\xe8\xed\x7f\xa80\x0c\xbd\xf9\xc5'
p907
baVIotyrris cingulifera
p908
aVhttps://upload.wikimedia.org/wikipedia/commons/8/81/Iotyrris_cingulifera_001.jpg
p909
aa(lp910
g2
(g3
g4
Ntp911
Rp912
S'Y\x19\xad\xe9\xed\x7f\xa80\x0c\xbd\xf9\xc7'
p913
baVConus miles
p914
aVhttps://upload.wikimedia.org/wikipedia/commons/6/68/Rhizoconus_miles_01.JPG
p915
aa(lp916
g2
(g3
g4
Ntp917
Rp918
S'Y\x19\xad\xe9\xed\x7f\xa80\x0c\xbd\xf9\xc8'
p919
baVHeteropoda venatoria
p920
aVhttps://upload.wikimedia.org/wikipedia/commons/2/27/Heteropoda_venatoria_01.jpg
p921
aa(lp922
g2
(g3
g4
Ntp923
Rp924
S'Y\x19\xad\xe9\xed\x7f\xa80\x0c\xbd\xf9\xc9'
p925
baVSistrurus miliarius barbouri
p926
aVhttps://upload.wikimedia.org/wikipedia/commons/a/a7/Sistrurus_miliaris_barbouri_2.jpg
p927
aa(lp928
g2
(g3
g4
Ntp929
Rp930
S'Y\x19\xad\xe9\xed\x7f\xa80\x0c\xbd\xf9\xca'
p931
baVEchis carinatus
p932
aVhttps://upload.wikimedia.org/wikipedia/commons/3/39/Saw_Scaled_Viper_Echis_carinatus.jpg
p933
aa(lp934
g2
(g3
g4
Ntp935
Rp936
S'Y\x19\xad\xe9\xed\x7f\xa80\x0c\xbd\xf9\xcc'
p937
baVSistrurus catenatus tergeminus
p938
aVhttps://upload.wikimedia.org/wikipedia/commons/0/0c/Sistrurus_catetanus_tergeminus_by_LA_Dawson.jpg
p939
aa(lp940
g2
(g3
g4
Ntp941
Rp942
S'Y\x19\xad\xe9\xed\x7f\xa80\x0c\xbd\xf9\xcd'
p943
baVConus spurius
p944
aVhttps://upload.wikimedia.org/wikipedia/commons/1/10/Conus_spurius_Gmelin%2C_1791_2013_000.JPG
p945
aa(lp946
g2
(g3
g4
Ntp947
Rp948
S'Y\x19\xad\xe9\xed\x7f\xa80\x0c\xbd\xf9\xce'
p949
baVButhus occitanus israelis
p950
aVhttps://upload.wikimedia.org/wikipedia/commons/a/a2/Boron.jpg
p951
aa(lp952
g2
(g3
g4
Ntp953
Rp954
S'Y\x19\xad\xe9\xed\x7f\xa80\x0c\xbd\xf9\xd0'
p955
baVSynanceia verrucosa
p956
aVhttps://upload.wikimedia.org/wikipedia/commons/f/f1/Synanceia_verrucosa.jpg
p957
aa(lp958
g2
(g3
g4
Ntp959
Rp960
S'Y\x19\xad\xe9\xed\x7f\xa80\x0c\xbd\xf9\xd1'
p961
baVDaboia palaestinae
p962
aVhttps://upload.wikimedia.org/wikipedia/commons/b/b3/Vipera_palaestina.jpg
p963
aa(lp964
g2
(g3
g4
Ntp965
Rp966
S'Y\x19\xad\xe9\xed\x7f\xa80\x0c\xbd\xf9\xd2'
p967
baVConus regularis
p968
aVhttps://upload.wikimedia.org/wikipedia/commons/3/3d/Gradiconus_regularis.JPG
p969
aa(lp970
g2
(g3
g4
Ntp971
Rp972
S'Y\x19\xad\xe9\xed\x7f\xa80\x0c\xbd\xf9\xd5'
p973
baVPolistes exclamans
p974
aVhttps://upload.wikimedia.org/wikipedia/commons/0/03/PolistesExclamans_4421.JPG
p975
aa(lp976
g2
(g3
g4
Ntp977
Rp978
S'Y\x19\xad\xe9\xed\x7f\xa80\x0c\xbd\xf9\xd6'
p979
baVPolistes annularis
p980
aVhttps://upload.wikimedia.org/wikipedia/commons/9/9b/RedWaspNest_cropped.jpg
p981
aa(lp982
g2
(g3
g4
Ntp983
Rp984
S'Y\x19\xad\xe9\xed\x7f\xa80\x0c\xbd\xf9\xd7'
p985
baVCrotalus adamanteus
p986
aVhttps://upload.wikimedia.org/wikipedia/commons/2/2b/EDB_G.Bartolotti.jpg
p987
aa(lp988
g2
(g3
g4
Ntp989
Rp990
S'Y\x19\xad\xe9\xed\x7f\xa80\x0c\xbd\xf9\xd8'
p991
baVPolistes fuscatus
p992
aVhttps://upload.wikimedia.org/wikipedia/commons/1/1e/Vespidae_-_Polistes_fuscatus.JPG
p993
aa(lp994
g2
(g3
g4
Ntp995
Rp996
S'Y\x19\xad\xe9\xed\x7f\xa80\x0c\xbd\xf9\xd9'
p997
baVMicrurus pyrrhocryptus
p998
aVhttps://upload.wikimedia.org/wikipedia/commons/f/f8/Micrurus_pyrrhocryptus_1.jpg
p999
aa(lp1000
g2
(g3
g4
Ntp1001
Rp1002
S'Y\x19\xad\xe9\xed\x7f\xa80\x0c\xbd\xf9\xda'
p1003
baVSolenopsis richteri
p1004
aVhttps://upload.wikimedia.org/wikipedia/commons/e/e1/Solenopsis_richteri_casent0103101_profile_1.jpg
p1005
aa(lp1006
g2
(g3
g4
Ntp1007
Rp1008
S'Y\x19\xad\xe9\xed\x7f\xa80\x0c\xbd\xf9\xdb'
p1009
baVBothrops insularis
p1010
aVhttps://upload.wikimedia.org/wikipedia/commons/a/a2/Eyelash_Pit_Viper_01.jpg
p1011
aa(lp1012
g2
(g3
g4
Ntp1013
Rp1014
S'Y\x19\xad\xe9\xed\x7f\xa80\x0c\xbd\xf9\xdc'
p1015
baVBothrops asper
p1016
aVhttps://upload.wikimedia.org/wikipedia/commons/5/51/Bothrops_asper_-_Tortuguero1.jpg
p1017
aa(lp1018
g2
(g3
g4
Ntp1019
Rp1020
S'Y\x19\xad\xe9\xed\x7f\xa80\x0c\xbd\xf9\xdd'
p1021
baVBothrops atrox
p1022
aVhttps://upload.wikimedia.org/wikipedia/commons/f/fb/Common_lancehead.jpg
p1023
aa(lp1024
g2
(g3
g4
Ntp1025
Rp1026
S'Y\x19\xad\xe9\xed\x7f\xa80\x0c\xbd\xf9\xde'
p1027
baVBothrops jararaca
p1028
aVhttps://upload.wikimedia.org/wikipedia/commons/8/88/Bothrops_jararaca_1.jpg
p1029
aa(lp1030
g2
(g3
g4
Ntp1031
Rp1032
S'Y\x19\xad\xe9\xed\x7f\xa80\x0c\xbd\xf9\xe0'
p1033
baVMicrurus frontalis
p1034
aVhttps://upload.wikimedia.org/wikipedia/commons/1/18/Micrurus_frontalis_Brazil_DF.jpg
p1035
aa(lp1036
g2
(g3
g4
Ntp1037
Rp1038
S'Y\x19\xad\xe9\xed\x7f\xa80\x0c\xbd\xf9\xe1'
p1039
baVConus ebraeus
p1040
aVhttps://upload.wikimedia.org/wikipedia/commons/1/17/CONEHEBRAIQUE.jpg
p1041
aa(lp1042
g2
(g3
g4
Ntp1043
Rp1044
S'Y\x19\xad\xe9\xed\x7f\xa80\x0c\xbd\xf9\xe2'
p1045
baVConus lividus
p1046
aVhttps://upload.wikimedia.org/wikipedia/commons/f/f8/Lividoconus_lividus_01.JPG
p1047
aa(lp1048
g2
(g3
g4
Ntp1049
Rp1050
S'Y\x19\xad\xe9\xed\x7f\xa80\x0c\xbd\xf9\xe3'
p1051
baVConus virgo
p1052
aVhttps://upload.wikimedia.org/wikipedia/commons/d/d2/Conus_virgo_shell001.jpg
p1053
aa(lp1054
g2
(g3
g4
Ntp1055
Rp1056
S'Y\x19\xad\xe9\xed\x7f\xa80\x0c\xbd\xf9\xe4'
p1057
baVConus omaria
p1058
aVhttps://upload.wikimedia.org/wikipedia/commons/5/57/Conus_omaria_002.jpg
p1059
aa(lp1060
g2
(g3
g4
Ntp1061
Rp1062
S'Y\x19\xad\xe9\xed\x7f\xa80\x0c\xbd\xf9\xe5'
p1063
baVWalterinnesia aegyptia
p1064
aVhttps://upload.wikimedia.org/wikipedia/commons/b/b1/Sinai-Desert-Cobra.jpg
p1065
aa(lp1066
g2
(g3
g4
Ntp1067
Rp1068
S'Y\x19\xad\xe9\xed\x7f\xa80\x0c\xbd\xf9\xe6'
p1069
baVCupiennius salei
p1070
aVhttps://upload.wikimedia.org/wikipedia/commons/b/b1/Cupiennius_salei_second_instar_-_1742-9994-8-15-19f.png
p1071
aa(lp1072
g2
(g3
g4
Ntp1073
Rp1074
S'Y\x19\xad\xe9\xed\x7f\xa80\x0c\xbd\xf9\xe7'
p1075
baVLatrodectus tredecimguttatus
p1076
aVhttps://upload.wikimedia.org/wikipedia/commons/7/7a/Latrodectus_tredecimguttatus_female.jpg
p1077
aa(lp1078
g2
(g3
g4
Ntp1079
Rp1080
S'Y\x19\xad\xe9\xed\x7f\xa80\x0c\xbd\xf9\xe8'
p1081
baVLatrodectus mactans
p1082
aVhttps://upload.wikimedia.org/wikipedia/commons/5/54/Latrodectus_mactans_eating.JPG
p1083
aa(lp1084
g2
(g3
g4
Ntp1085
Rp1086
S'Y\x19\xad\xe9\xed\x7f\xa80\x0c\xbd\xf9\xe9'
p1087
baVCalisoga sp.
p1088
aVhttps://upload.wikimedia.org/wikipedia/commons/2/2d/Female_Calisoga_sp._%28Marshal_Hedin%29.jpg
p1089
aa(lp1090
g2
(g3
g4
Ntp1091
Rp1092
S'Y\x19\xad\xe9\xed\x7f\xa80\x0c\xbd\xf9\xea'
p1093
baVLoxosceles reclusa
p1094
aVhttps://upload.wikimedia.org/wikipedia/commons/b/b3/Brown-recluse-2.jpg
p1095
aa(lp1096
g2
(g3
g4
Ntp1097
Rp1098
S'Y\x19\xad\xe9\xed\x7f\xa80\x0c\xbd\xf9\xeb'
p1099
baVBoiga irregularis
p1100
aVhttps://upload.wikimedia.org/wikipedia/commons/8/82/Boiga_irregularis_coiled.jpg
p1101
aa(lp1102
g2
(g3
g4
Ntp1103
Rp1104
S'Y\x19\xad\xe9\xed\x7f\xa80\x0c\xbd\xf9\xec'
p1105
baVAustrelaps superbus
p1106
aVhttps://upload.wikimedia.org/wikipedia/commons/8/82/Austrelaps_superbus_-_Reptile_Park.jpg
p1107
aa(lp1108
g2
(g3
g4
Ntp1109
Rp1110
S'Y\x19\xad\xe9\xed\x7f\xa80\x0c\xbd\xf9\xee'
p1111
baVDeinagkistrodon acutus
p1112
aVhttps://upload.wikimedia.org/wikipedia/commons/b/b7/Sharp-Nosed_Viper_01.jpg
p1113
aa(lp1114
g2
(g3
g4
Ntp1115
Rp1116
S'Y\x19\xad\xe9\xed\x7f\xa80\x0c\xbd\xf9\xef'
p1117
baVEctatomma tuberculatum
p1118
aVhttps://upload.wikimedia.org/wikipedia/commons/d/da/Ectatomma_tuberculatum.jpg
p1119
aa(lp1120
g2
(g3
g4
Ntp1121
Rp1122
S'Y\x19\xad\xe9\xed\x7f\xa80\x0c\xbd\xf9\xf0'
p1123
baVIcaria sp.
p1124
aVhttps://upload.wikimedia.org/wikipedia/commons/3/34/Icaria_port.JPG
p1125
aa(lp1126
g2
(g3
g4
Ntp1127
Rp1128
S'Y\x19\xad\xe9\xed\x7f\xa80\x0c\xbd\xf9\xf1'
p1129
baVBungarus flaviceps flaviceps
p1130
aVhttps://upload.wikimedia.org/wikipedia/commons/a/a2/Boron.jpg
p1131
aa(lp1132
g2
(g3
g4
Ntp1133
Rp1134
S'Y\x19\xad\xea\xed\x7f\xa80\x0c\xbd\xf9\xf2'
p1135
baVBungarus multicinctus
p1136
aVhttps://upload.wikimedia.org/wikipedia/commons/8/84/Bungarus_multicinctus.jpg
p1137
aa(lp1138
g2
(g3
g4
Ntp1139
Rp1140
S'Y\x19\xad\xea\xed\x7f\xa80\x0c\xbd\xf9\xf4'
p1141
baVNaja annulata annulata
p1142
aVhttps://upload.wikimedia.org/wikipedia/commons/5/5c/CompassRose16_white.PNG
p1143
aa(lp1144
g2
(g3
g4
Ntp1145
Rp1146
S'Y\x19\xad\xea\xed\x7f\xa80\x0c\xbd\xf9\xf5'
p1147
baVBungarus fasciatus
p1148
aVhttps://upload.wikimedia.org/wikipedia/commons/e/e2/AB_054_Banded_Krait.JPG
p1149
aa(lp1150
g2
(g3
g4
Ntp1151
Rp1152
S'Y\x19\xad\xea\xed\x7f\xa80\x0c\xbd\xf9\xf7'
p1153
baVDendroaspis angusticeps
p1154
aVhttps://upload.wikimedia.org/wikipedia/commons/7/74/Eastern_Green_Mamba_02.jpg
p1155
aa(lp1156
g2
(g3
g4
Ntp1157
Rp1158
S'Y\x19\xad\xea\xed\x7f\xa80\x0c\xbd\xf9\xf8'
p1159
baVConus ventricosus
p1160
aVhttps://upload.wikimedia.org/wikipedia/commons/b/bb/Conus_ventricosus_1.jpg
p1161
aa(lp1162
g2
(g3
g4
Ntp1163
Rp1164
S'Y\x19\xad\xea\xed\x7f\xa80\x0c\xbd\xf9\xf9'
p1165
baVDemansia vestigiata
p1166
aVhttps://upload.wikimedia.org/wikipedia/commons/b/b9/Lesser_Black_Whip_Snake_%28Demansia_vestigiata%29_%288692361790%29.jpg
p1167
aa(lp1168
g2
(g3
g4
Ntp1169
Rp1170
S'Y\x19\xad\xea\xed\x7f\xa80\x0c\xbd\xf9\xfa'
p1171
baVVespa velutina
p1172
aVhttps://upload.wikimedia.org/wikipedia/commons/7/76/Vespa_velutina_nigrithorax_MHNT.jpg
p1173
aa(lp1174
g2
(g3
g4
Ntp1175
Rp1176
S'Y\x19\xad\xea\xed\x7f\xa80\x0c\xbd\xf9\xfb'
p1177
baVAraneus ventricosus
p1178
aVhttps://upload.wikimedia.org/wikipedia/commons/1/10/Araneus_ventricosus_L._Koch_090701.jpg
p1179
aa(lp1180
g2
(g3
g4
Ntp1181
Rp1182
S'Y\x19\xad\xea\xed\x7f\xa80\x0c\xbd\xf9\xfd'
p1183
baVLycosa singoriensis
p1184
aVhttps://upload.wikimedia.org/wikipedia/commons/5/50/Lycosa_singoriensis.JPG
p1185
aa(lp1186
g2
(g3
g4
Ntp1187
Rp1188
S'Y\x19\xad\xea\xed\x7f\xa80\x0c\xbd\xf9\xfe'
p1189
baVConus arenatus
p1190
aVhttps://upload.wikimedia.org/wikipedia/commons/b/bb/Conus_arenatus_1.jpg
p1191
aa(lp1192
g2
(g3
g4
Ntp1193
Rp1194
S'Y\x19\xad\xea\xed\x7f\xa80\x0c\xbd\xf9\xff'
p1195
baVConus stercusmuscarum
p1196
aVhttps://upload.wikimedia.org/wikipedia/commons/5/54/Conus_stercusmuscarum_1.jpg
p1197
aa(lp1198
g2
(g3
g4
Ntp1199
Rp1200
S'Y\x19\xad\xea\xed\x7f\xa80\x0c\xbd\xfa\x00'
p1201
baVConus pergrandis
p1202
aVhttps://upload.wikimedia.org/wikipedia/commons/8/82/Conus_pergrandis_1.jpg
p1203
aa(lp1204
g2
(g3
g4
Ntp1205
Rp1206
S'Y\x19\xad\xea\xed\x7f\xa80\x0c\xbd\xfa\x02'
p1207
baVCentruroides sculpturatus
p1208
aVhttps://upload.wikimedia.org/wikipedia/commons/0/0a/Arizona_Bark_Scorpion_and_her_hatchlings.jpg
p1209
aa(lp1210
g2
(g3
g4
Ntp1211
Rp1212
S'Y\x19\xad\xea\xed\x7f\xa80\x0c\xbd\xfa\x03'
p1213
baVBothrops erythromelas
p1214
aVhttps://upload.wikimedia.org/wikipedia/commons/3/38/Gfp-caatinga-lance-headed-pitviper.jpg
p1215
aa(lp1216
g2
(g3
g4
Ntp1217
Rp1218
S'Y\x19\xad\xea\xed\x7f\xa80\x0c\xbd\xfa\x04'
p1219
baVScolopendra mutilans
p1220
aVhttps://upload.wikimedia.org/wikipedia/commons/f/fa/Scolopendra_sp.jpg
p1221
aa(lp1222
g2
(g3
g4
Ntp1223
Rp1224
S'Y\x19\xad\xea\xed\x7f\xa80\x0c\xbd\xfa\x06'
p1225
baVOxyopes lineatus
p1226
aVhttps://upload.wikimedia.org/wikipedia/commons/d/d9/Oxyopes_lineatus.jpg
p1227
aa(lp1228
g2
(g3
g4
Ntp1229
Rp1230
S'Y\x19\xad\xea\xed\x7f\xa80\x0c\xbd\xfa\x07'
p1231
baVLeioheterodon madagascariensis
p1232
aVhttps://upload.wikimedia.org/wikipedia/commons/5/5e/Giant_Madagascan_Hognose_Snake_in_dry_leaf_litter_at_Kirindy_Forest_Reserve%2C_April_2012%2C_Leioheterodon_madagascariensis.jpg
p1233
aa(lp1234
g2
(g3
g4
Ntp1235
Rp1236
S'Y\x19\xad\xea\xed\x7f\xa80\x0c\xbd\xfa\t'
p1237
baVSolenopsis geminata
p1238
aVhttps://upload.wikimedia.org/wikipedia/commons/6/66/Solenopsis_geminata_casent0063125_profile_1.jpg
p1239
aa(lp1240
g2
(g3
g4
Ntp1241
Rp1242
S'Y\x19\xad\xea\xed\x7f\xa80\x0c\xbd\xfa\n'
p1243
baVIsometrus maculatus
p1244
aVhttps://upload.wikimedia.org/wikipedia/commons/d/dc/Scorpion-Isometrus.maculatus-03.jpg
p1245
aa(lp1246
g2
(g3
g4
Ntp1247
Rp1248
S'Y\x19\xad\xea\xed\x7f\xa80\x0c\xbd\xfa\x0c'
p1249
baVAcanthaster planci
p1250
aVhttps://upload.wikimedia.org/wikipedia/commons/8/8f/CrownofThornsStarfish_Fiji_2005-10-12.jpg
p1251
aa(lp1252
g2
(g3
g4
Ntp1253
Rp1254
S'Y\x19\xad\xea\xed\x7f\xa80\x0c\xbd\xfa\r'
p1255
baVCrotalus durissus collilineatus
p1256
aVhttps://upload.wikimedia.org/wikipedia/commons/7/72/Coal_anthracite.jpg
p1257
aa(lp1258
g2
(g3
g4
Ntp1259
Rp1260
S'Y\x19\xad\xea\xed\x7f\xa80\x0c\xbd\xfa\x0f'
p1261
baVBothrops ammodytoides
p1262
aVhttps://upload.wikimedia.org/wikipedia/commons/8/84/Bothrops_ammodytoides.jpg
p1263
aa(lp1264
g2
(g3
g4
Ntp1265
Rp1266
S'Y\x19\xad\xea\xed\x7f\xa80\x0c\xbd\xfa\x10'
p1267
baVHadrurus aztecus
p1268
aVhttps://upload.wikimedia.org/wikipedia/commons/2/2c/Hadrurus_spadix.png
p1269
aa(lp1270
g2
(g3
g4
Ntp1271
Rp1272
S'Y\x19\xad\xea\xed\x7f\xa80\x0c\xbd\xfa\x11'
p1273
baVCheiracanthium punctorium
p1274
aVhttps://upload.wikimedia.org/wikipedia/commons/3/38/Cheiracanthium_punctorium_frei_1_17_Forst_Jungfernhdeide_Jg_46_070920.jpg
p1275
aa(lp1276
g2
(g3
g4
Ntp1277
Rp1278
S'Y\x19\xad\xea\xed\x7f\xa80\x0c\xbd\xfa\x12'
p1279
baVSolenopsis saevissima
p1280
aVhttps://upload.wikimedia.org/wikipedia/commons/d/d3/Solenopsis_saevissima_casent0178144_profile_1.jpg
p1281
aa(lp1282
g2
(g3
g4
Ntp1283
Rp1284
S'Y\x19\xad\xea\xed\x7f\xa80\x0c\xbd\xfa\x13'
p1285
baVPseudocerastes fieldi
p1286
aVhttps://upload.wikimedia.org/wikipedia/commons/c/c8/%D7%A9%D7%A4%D7%99%D7%A4%D7%95%D7%9F_%D7%94%D7%A0%D7%92%D7%91.jpg
p1287
aa(lp1288
g2
(g3
g4
Ntp1289
Rp1290
S'Y\x19\xad\xea\xed\x7f\xa80\x0c\xbd\xfa\x17'
p1291
baVNaja kaouthia
p1292
aVhttps://upload.wikimedia.org/wikipedia/commons/6/6a/Elapidae_-_Naja_kaouthia.jpg
p1293
aa(lp1294
g2
(g3
g4
Ntp1295
Rp1296
S'Y\x19\xad\xea\xed\x7f\xa80\x0c\xbd\xfa\x18'
p1297
baVConus monile
p1298
aVhttps://upload.wikimedia.org/wikipedia/commons/8/8e/Conus_monile_003.jpg
p1299
aa(lp1300
g2
(g3
g4
Ntp1301
Rp1302
S'Y\x19\xad\xea\xed\x7f\xa80\x0c\xbd\xfa\x1a'
p1303
baVButhus occitanus mardochei
p1304
aVhttps://upload.wikimedia.org/wikipedia/commons/a/a2/Boron.jpg
p1305
aa(lp1306
g2
(g3
g4
Ntp1307
Rp1308
S'Y\x19\xad\xea\xed\x7f\xa80\x0c\xbd\xfa\x1b'
p1309
baVLoxosceles rufescens
p1310
aVhttps://upload.wikimedia.org/wikipedia/commons/6/64/Loxosceles_rufescens3.jpg
p1311
aa(lp1312
g2
(g3
g4
Ntp1313
Rp1314
S'Y\x19\xad\xea\xed\x7f\xa80\x0c\xbd\xfa\x1d'
p1315
baVBothriechis nigroviridis
p1316
aVhttps://upload.wikimedia.org/wikipedia/commons/f/fb/Bothriechis_nigroviridis_%281%29.jpg
p1317
aa(lp1318
g2
(g3
g4
Ntp1319
Rp1320
S'Y\x19\xad\xea\xed\x7f\xa80\x0c\xbd\xfa\x1f'
p1321
baVAndroctonus mauritanicus mauritanicus
p1322
aVhttps://upload.wikimedia.org/wikipedia/commons/d/db/Latin_alphabet_Aa.png
p1323
aa(lp1324
g2
(g3
g4
Ntp1325
Rp1326
S'Y\x19\xad\xea\xed\x7f\xa80\x0c\xbd\xfa!'
p1327
baVHottentotta judaicus
p1328
aVhttps://upload.wikimedia.org/wikipedia/commons/b/b9/Skorsh.jpg
p1329
aa(lp1330
g2
(g3
g4
Ntp1331
Rp1332
S'Y\x19\xad\xea\xed\x7f\xa80\x0c\xbd\xfa#'
p1333
baVParabuthus villosus
p1334
aVhttps://upload.wikimedia.org/wikipedia/commons/a/a1/Parabuthus_villosus%2C_b%2C_Usakos.jpg
p1335
aa(lp1336
g2
(g3
g4
Ntp1337
Rp1338
S'Y\x19\xad\xea\xed\x7f\xa80\x0c\xbd\xfa%'
p1339
baVTurridrupa cerithina
p1340
aVhttps://upload.wikimedia.org/wikipedia/commons/7/71/Turridrupa_cerithina_002.jpg
p1341
aa(lp1342
g2
(g3
g4
Ntp1343
Rp1344
S"Y\x19\xad\xea\xed\x7f\xa80\x0c\xbd\xfa'"
p1345
baVAtheris chlorechis
p1346
aVhttps://upload.wikimedia.org/wikipedia/commons/d/d2/Atheris_chlorechis.jpg
p1347
aa(lp1348
g2
(g3
g4
Ntp1349
Rp1350
S'Y\x19\xad\xea\xed\x7f\xa80\x0c\xbd\xfa('
p1351
baVTropidechis carinatus
p1352
aVhttps://upload.wikimedia.org/wikipedia/commons/5/51/Tropcarin3.jpg
p1353
aa(lp1354
g2
(g3
g4
Ntp1355
Rp1356
S'Y\x19\xad\xea\xed\x7f\xa80\x0c\xbd\xfa)'
p1357
baVBothrops moojeni
p1358
aVhttps://upload.wikimedia.org/wikipedia/commons/9/9e/BrazilianLancehead.jpg
p1359
aa(lp1360
g2
(g3
g4
Ntp1361
Rp1362
S'Y\x19\xad\xea\xed\x7f\xa80\x0c\xbd\xfa.'
p1363
baVLachesis muta
p1364
aVhttps://upload.wikimedia.org/wikipedia/commons/5/5e/Lachesis_muta_muta.jpg
p1365
aa(lp1366
g2
(g3
g4
Ntp1367
Rp1368
S'Y\x19\xad\xea\xed\x7f\xa80\x0c\xbd\xfa/'
p1369
baVLaticauda colubrina
p1370
aVhttps://upload.wikimedia.org/wikipedia/commons/6/6e/Laticauda_colubrina_Lembeh2.jpg
p1371
aa(lp1372
g2
(g3
g4
Ntp1373
Rp1374
S'Y\x19\xad\xea\xed\x7f\xa80\x0c\xbd\xfa1'
p1375
baVConus tinianus
p1376
aVhttps://upload.wikimedia.org/wikipedia/commons/a/a7/Conus_tinianus_001.png
p1377
aa(lp1378
g2
(g3
g4
Ntp1379
Rp1380
S'Y\x19\xad\xea\xed\x7f\xa80\x0c\xbd\xfa2'
p1381
baVConus kinoshitai
p1382
aVhttps://upload.wikimedia.org/wikipedia/commons/f/f0/Conus_kinoshitai_001.jpg
p1383
aa(lp1384
g2
(g3
g4
Ntp1385
Rp1386
S'Y\x19\xad\xea\xed\x7f\xa80\x0c\xbd\xfa3'
p1387
baVHemachatus haemachatus
p1388
aVhttps://upload.wikimedia.org/wikipedia/commons/c/c0/Rinkhals2.jpg
p1389
aa(lp1390
g2
(g3
g4
Ntp1391
Rp1392
S'Y\x19\xad\xea\xed\x7f\xa80\x0c\xbd\xfa5'
p1393
baVDendroaspis viridis
p1394
aVhttps://upload.wikimedia.org/wikipedia/commons/d/de/Dendroaspis_viridisPCCA20051227-1885B.jpg
p1395
aa(lp1396
g2
(g3
g4
Ntp1397
Rp1398
S'Y\x19\xad\xea\xed\x7f\xa80\x0c\xbd\xfa7'
p1399
baVHydrophis hardwickii
p1400
aVhttps://upload.wikimedia.org/wikipedia/commons/9/9a/Lapemis_hardwickii.jpg
p1401
aa(lp1402
g2
(g3
g4
Ntp1403
Rp1404
S'Y\x19\xad\xea\xed\x7f\xa80\x0c\xbd\xfa8'
p1405
baVOxybelis fulgidus
p1406
aVhttps://upload.wikimedia.org/wikipedia/commons/5/5a/Oxybelis_fulgidus_%28Yasuni%29.jpg
p1407
aa(lp1408
g2
(g3
g4
Ntp1409
Rp1410
S'Y\x19\xad\xea\xed\x7f\xa80\x0c\xbd\xfa9'
p1411
baVOsmia rufa
p1412
aVhttps://upload.wikimedia.org/wikipedia/commons/6/6c/Osmia_rufa_couple_%28aka%29.jpg
p1413
aa(lp1414
g2
(g3
g4
Ntp1415
Rp1416
S'Y\x19\xad\xea\xed\x7f\xa80\x0c\xbd\xfa<'
p1417
baVEctatomma brunneum
p1418
aVhttps://upload.wikimedia.org/wikipedia/commons/1/13/Ectatomma_brunneum_casent0173375_profile_1.jpg
p1419
aa(lp1420
g2
(g3
g4
Ntp1421
Rp1422
S'Y\x19\xad\xea\xed\x7f\xa80\x0c\xbd\xfa>'
p1423
baVNaja philippinensis
p1424
aVhttps://upload.wikimedia.org/wikipedia/commons/2/25/Naja_philippinensis.png
p1425
aa(lp1426
g2
(g3
g4
Ntp1427
Rp1428
S'Y\x19\xad\xea\xed\x7f\xa80\x0c\xbd\xfa?'
p1429
baVNaja pallida
p1430
aVhttps://upload.wikimedia.org/wikipedia/commons/d/db/Naja_pallida%2C_Boston.jpg
p1431
aa(lp1432
g2
(g3
g4
Ntp1433
Rp1434
S'Y\x19\xad\xea\xed\x7f\xa80\x0c\xbd\xfaA'
p1435
baVGloydius halys
p1436
aVhttps://upload.wikimedia.org/wikipedia/commons/8/8e/Gloydius_halys_1.JPG
p1437
aa(lp1438
g2
(g3
g4
Ntp1439
Rp1440
S'Y\x19\xad\xea\xed\x7f\xa80\x0c\xbd\xfaB'
p1441
baVAgkistrodon piscivorus piscivorus
p1442
aVhttps://upload.wikimedia.org/wikipedia/commons/2/2b/Agkistrodon_piscivorus_piscivorus_dark.JPG
p1443
aa(lp1444
g2
(g3
g4
Ntp1445
Rp1446
S'Y\x19\xad\xeb\xed\x7f\xa80\x0c\xbd\xfaC'
p1447
baVCalloselasma rhodostoma
p1448
aVhttps://upload.wikimedia.org/wikipedia/commons/7/75/Callos_rhodos_120610-0645_krw.jpg
p1449
aa(lp1450
g2
(g3
g4
Ntp1451
Rp1452
S'Y\x19\xad\xeb\xed\x7f\xa80\x0c\xbd\xfaD'
p1453
baVAgkistrodon bilineatus
p1454
aVhttps://upload.wikimedia.org/wikipedia/commons/2/29/Agkistrodon_bilineatus_2.jpg
p1455
aa(lp1456
g2
(g3
g4
Ntp1457
Rp1458
S'Y\x19\xad\xeb\xed\x7f\xa80\x0c\xbd\xfaF'
p1459
baVNaja nivea
p1460
aVhttps://upload.wikimedia.org/wikipedia/commons/d/d5/Naja_nivea_IMG_5078_Kappkobra.jpg
p1461
aa(lp1462
g2
(g3
g4
Ntp1463
Rp1464
S'Y\x19\xad\xeb\xed\x7f\xa80\x0c\xbd\xfaG'
p1465
baVNaja nigricollis
p1466
aVhttps://upload.wikimedia.org/wikipedia/commons/1/11/N.nigricollis.jpg
p1467
aa(lp1468
g2
(g3
g4
Ntp1469
Rp1470
S'Y\x19\xad\xeb\xed\x7f\xa80\x0c\xbd\xfaH'
p1471
baVNaja oxiana
p1472
aVhttps://upload.wikimedia.org/wikipedia/commons/6/6b/Naja_oxiana_IMG_9612.JPG
p1473
aa(lp1474
g2
(g3
g4
Ntp1475
Rp1476
S'Y\x19\xad\xeb\xed\x7f\xa80\x0c\xbd\xfaI'
p1477
baVNaja atra
p1478
aVhttps://upload.wikimedia.org/wikipedia/commons/4/49/Naja_atra_%2803%29.jpg
p1479
aa(lp1480
g2
(g3
g4
Ntp1481
Rp1482
S'Y\x19\xad\xeb\xed\x7f\xa80\x0c\xbd\xfaK'
p1483
baVMesobuthus tamulus
p1484
aVhttps://upload.wikimedia.org/wikipedia/commons/0/0c/Mesobuthus_martensii_%28283%29.jpg
p1485
aa(lp1486
g2
(g3
g4
Ntp1487
Rp1488
S'Y\x19\xad\xeb\xed\x7f\xa80\x0c\xbd\xfaL'
p1489
baVMesobuthus eupeus
p1490
aVhttps://upload.wikimedia.org/wikipedia/commons/c/c7/Mesobuthus_eupeus_in_human_hand.jpg
p1491
aa(lp1492
g2
(g3
g4
Ntp1493
Rp1494
S'Y\x19\xad\xeb\xed\x7f\xa80\x0c\xbd\xfaM'
p1495
baVMesobuthus martensii
p1496
aVhttps://upload.wikimedia.org/wikipedia/commons/0/0c/Mesobuthus_martensii_%28283%29.jpg
p1497
aa(lp1498
g2
(g3
g4
Ntp1499
Rp1500
S'Y\x19\xad\xeb\xed\x7f\xa80\x0c\xbd\xfaN'
p1501
baVPsammophis mossambicus
p1502
aVhttps://upload.wikimedia.org/wikipedia/commons/a/ab/Dortmund_-_Zoo_-_Psammophis_mossambicus_02_ies.jpg
p1503
aa(lp1504
g2
(g3
g4
Ntp1505
Rp1506
S'Y\x19\xad\xeb\xed\x7f\xa80\x0c\xbd\xfaO'
p1507
baVTityus obscurus
p1508
aVhttps://upload.wikimedia.org/wikipedia/commons/3/31/F_de_Castelnau-scorpionsPl01.jpg
p1509
aa(lp1510
g2
(g3
g4
Ntp1511
Rp1512
S'Y\x19\xad\xeb\xed\x7f\xa80\x0c\xbd\xfaQ'
p1513
baVTrimeresurus borneensis
p1514
aVhttps://upload.wikimedia.org/wikipedia/commons/5/5c/Trimeresurus_borneensis.jpg
p1515
aa(lp1516
g2
(g3
g4
Ntp1517
Rp1518
S'Y\x19\xad\xeb\xed\x7f\xa80\x0c\xbd\xfaS'
p1519
baVPhoneutria nigriventer
p1520
aVhttps://upload.wikimedia.org/wikipedia/commons/1/14/Wandering_spider.jpg
p1521
aa(lp1522
g2
(g3
g4
Ntp1523
Rp1524
S'Y\x19\xad\xeb\xed\x7f\xa80\x0c\xbd\xfaT'
p1525
baVNaja annulifera
p1526
aVhttps://upload.wikimedia.org/wikipedia/commons/9/99/Snouted_Cobra%2C_Naja_annulifera.jpg
p1527
aa(lp1528
g2
(g3
g4
Ntp1529
Rp1530
S'Y\x19\xad\xeb\xed\x7f\xa80\x0c\xbd\xfaU'
p1531
baVApis cerana cerana
p1532
aVhttps://upload.wikimedia.org/wikipedia/commons/d/db/Latin_alphabet_Aa.png
p1533
aa(lp1534
g2
(g3
g4
Ntp1535
Rp1536
S'Y\x19\xad\xeb\xed\x7f\xa80\x0c\xbd\xfaV'
p1537
baVDolichovespula maculata
p1538
aVhttps://upload.wikimedia.org/wikipedia/commons/4/4d/Baldie.jpg
p1539
aa(lp1540
g2
(g3
g4
Ntp1541
Rp1542
S'Y\x19\xad\xeb\xed\x7f\xa80\x0c\xbd\xfaX'
p1543
baVDolichovespula arenaria
p1544
aVhttps://upload.wikimedia.org/wikipedia/commons/e/ec/Gilles_Gonthier_-_Dolichovespula_arenaria_%28by%29.jpg
p1545
aa(lp1546
g2
(g3
g4
Ntp1547
Rp1548
S'Y\x19\xad\xeb\xed\x7f\xa80\x0c\xbd\xfaY'
p1549
baVVespa crabro
p1550
aVhttps://upload.wikimedia.org/wikipedia/commons/f/fd/Hornet-vespa.jpg
p1551
aa(lp1552
g2
(g3
g4
Ntp1553
Rp1554
S'Y\x19\xad\xeb\xed\x7f\xa80\x0c\xbd\xfa['
p1555
baVVespa orientalis
p1556
aVhttps://upload.wikimedia.org/wikipedia/commons/0/00/Oosterse_hoornaar_Vespa_orientalis_%281%29.jpg
p1557
aa(lp1558
g2
(g3
g4
Ntp1559
Rp1560
S'Y\x19\xad\xeb\xed\x7f\xa80\x0c\xbd\xfa\\'
p1561
baVVespa mandarinia
p1562
aVhttps://upload.wikimedia.org/wikipedia/commons/3/3e/Vespa_mandarinia_japonica2.jpg
p1563
aa(lp1564
g2
(g3
g4
Ntp1565
Rp1566
S'Y\x19\xad\xeb\xed\x7f\xa80\x0c\xbd\xfa^'
p1567
baVVespa xanthoptera
p1568
aVhttps://upload.wikimedia.org/wikipedia/commons/0/00/Oosterse_hoornaar_Vespa_orientalis_%281%29.jpg
p1569
aa(lp1570
g2
(g3
g4
Ntp1571
Rp1572
S'Y\x19\xad\xeb\xed\x7f\xa80\x0c\xbd\xfaa'
p1573
baVConus marmoreus
p1574
aVhttps://upload.wikimedia.org/wikipedia/commons/4/4e/Conus_marmoreus_feeding_on_cowrie.jpg
p1575
aa(lp1576
g2
(g3
g4
Ntp1577
Rp1578
S'Y\x19\xad\xeb\xed\x7f\xa80\x0c\xbd\xfab'
p1579
baVConus regius
p1580
aVhttps://upload.wikimedia.org/wikipedia/commons/f/f8/Conus_regius_1.jpg
p1581
aa(lp1582
g2
(g3
g4
Ntp1583
Rp1584
S'Y\x19\xad\xeb\xed\x7f\xa80\x0c\xbd\xfac'
p1585
baVConus striolatus
p1586
aVhttps://upload.wikimedia.org/wikipedia/commons/0/03/Conus_striolatus_001.jpg
p1587
aa(lp1588
g2
(g3
g4
Ntp1589
Rp1590
S'Y\x19\xad\xeb\xed\x7f\xa80\x0c\xbd\xfad'
p1591
baVConus quercinus
p1592
aVhttps://upload.wikimedia.org/wikipedia/commons/1/1b/Conus_quercinus.jpg
p1593
aa(lp1594
g2
(g3
g4
Ntp1595
Rp1596
S'Y\x19\xad\xeb\xed\x7f\xa80\x0c\xbd\xfae'
p1597
baVConus princeps
p1598
aVhttps://upload.wikimedia.org/wikipedia/commons/c/c5/Ductoconus_princeps_2.JPG
p1599
aa(lp1600
g2
(g3
g4
Ntp1601
Rp1602
S'Y\x19\xad\xeb\xed\x7f\xa80\x0c\xbd\xfag'
p1603
baVCrotalus horridus
p1604
aVhttps://upload.wikimedia.org/wikipedia/commons/3/3c/C_horridus.JPG
p1605
aa(lp1606
g2
(g3
g4
Ntp1607
Rp1608
S'Y\x19\xad\xeb\xed\x7f\xa80\x0c\xbd\xfah'
p1609
baVCentruroides infamatus infamatus
p1610
aVhttps://upload.wikimedia.org/wikipedia/commons/7/72/Coal_anthracite.jpg
p1611
aa(lp1612
g2
(g3
g4
Ntp1613
Rp1614
S'Y\x19\xad\xeb\xed\x7f\xa80\x0c\xbd\xfaj'
p1615
baVPseudocerastes persicus
p1616
aVhttps://upload.wikimedia.org/wikipedia/commons/c/ca/Pseudocerastes_persicus.jpg
p1617
aa(lp1618
g2
(g3
g4
Ntp1619
Rp1620
S'Y\x19\xad\xeb\xed\x7f\xa80\x0c\xbd\xfal'
p1621
baVCentruroides exilicauda
p1622
aVhttps://upload.wikimedia.org/wikipedia/commons/f/fb/Bark_Scorpion.jpg
p1623
aa(lp1624
g2
(g3
g4
Ntp1625
Rp1626
S'Y\x19\xad\xeb\xed\x7f\xa80\x0c\xbd\xfam'
p1627
baVPandinus imperator
p1628
aVhttps://upload.wikimedia.org/wikipedia/commons/6/6d/Emperor_scorpion_or_Imperial_scorpion_%28Pandinus_imperator%29.jpg
p1629
aa(lp1630
g2
(g3
g4
Ntp1631
Rp1632
S'Y\x19\xad\xeb\xed\x7f\xa80\x0c\xbd\xfao'
p1633
baVBrachypelma ruhnaui
p1634
aVhttps://upload.wikimedia.org/wikipedia/commons/7/7b/Brachypelma_smithi_2009_G09.jpg
p1635
aa(lp1636
g2
(g3
g4
Ntp1637
Rp1638
S'Y\x19\xad\xeb\xed\x7f\xa80\x0c\xbd\xfap'
p1639
baVBorikenophis portoricensis
p1640
aVhttps://upload.wikimedia.org/wikipedia/commons/3/30/Culebrita_completa.jpg
p1641
aa(lp1642
g2
(g3
g4
Ntp1643
Rp1644
S'Y\x19\xad\xeb\xed\x7f\xa80\x0c\xbd\xfaq'
p1645
baVAgelena orientalis
p1646
aVhttps://upload.wikimedia.org/wikipedia/commons/a/a0/Agelenidae_-_Agelena_sp..jpg
p1647
aa(lp1648
g2
(g3
g4
Ntp1649
Rp1650
S'Y\x19\xad\xeb\xed\x7f\xa80\x0c\xbd\xfar'
p1651
baVLachesis stenophrys
p1652
aVhttps://upload.wikimedia.org/wikipedia/commons/7/7b/Lachesis_stenophrys_%283%29.jpg
p1653
aa(lp1654
g2
(g3
g4
Ntp1655
Rp1656
S'Y\x19\xad\xeb\xed\x7f\xa80\x0c\xbd\xfav'
p1657
baVBothrops leucurus
p1658
aVhttps://upload.wikimedia.org/wikipedia/commons/c/c9/Whitetail_Lancehead_01.jpg
p1659
aa(lp1660
g2
(g3
g4
Ntp1661
Rp1662
S'Y\x19\xad\xeb\xed\x7f\xa80\x0c\xbd\xfaw'
p1663
baVPolistes gallicus
p1664
aVhttps://upload.wikimedia.org/wikipedia/commons/d/db/Polistes_gallicus1.jpg
p1665
aa(lp1666
g2
(g3
g4
Ntp1667
Rp1668
S'Y\x19\xad\xeb\xed\x7f\xa80\x0c\xbd\xfay'
p1669
baVProtobothrops elegans
p1670
aVhttps://upload.wikimedia.org/wikipedia/commons/2/20/Protobothrops_elegans.jpg
p1671
aa(lp1672
g2
(g3
g4
Ntp1673
Rp1674
S'Y\x19\xad\xeb\xed\x7f\xa80\x0c\xbd\xfaz'
p1675
baVOrnithorhynchus anatinus
p1676
aVhttps://upload.wikimedia.org/wikipedia/commons/1/12/Platypus_BrokenRiver_QLD_Australia2.png
p1677
aa(lp1678
g2
(g3
g4
Ntp1679
Rp1680
S'Y\x19\xad\xeb\xed\x7f\xa80\x0c\xbd\xfa|'
p1681
baVConus ermineus
p1682
aVhttps://upload.wikimedia.org/wikipedia/commons/6/64/Conus_ermineus_1.jpg
p1683
aa(lp1684
g2
(g3
g4
Ntp1685
Rp1686
S'Y\x19\xad\xeb\xed\x7f\xa80\x0c\xbd\xfa}'
p1687
baVMegascolia flavifrons
p1688
aVhttps://upload.wikimedia.org/wikipedia/commons/b/b1/Megascoliamaculata.png
p1689
aa(lp1690
g2
(g3
g4
Ntp1691
Rp1692
S'Y\x19\xad\xeb\xed\x7f\xa80\x0c\xbd\xfa~'
p1693
baVParaponera clavata
p1694
aVhttps://upload.wikimedia.org/wikipedia/commons/c/cb/Paraponera_clavata.jpg
p1695
aa(lp1696
g2
(g3
g4
Ntp1697
Rp1698
S'Y\x19\xad\xeb\xed\x7f\xa80\x0c\xbd\xfa\x7f'
p1699
baVButhus occitanus tunetanus
p1700
aVhttps://upload.wikimedia.org/wikipedia/commons/a/a2/Boron.jpg
p1701
aa(lp1702
g2
(g3
g4
Ntp1703
Rp1704
S'Y\x19\xad\xeb\xed\x7f\xa80\x0c\xbd\xfa\x80'
p1705
baVBombus pensylvanicus
p1706
aVhttps://upload.wikimedia.org/wikipedia/commons/c/c6/Bombus_pensylvanicus.jpg
p1707
aa(lp1708
g2
(g3
g4
Ntp1709
Rp1710
S'Y\x19\xad\xeb\xed\x7f\xa80\x0c\xbd\xfa\x83'
p1711
baVVaranus komodoensis
p1712
aVhttps://upload.wikimedia.org/wikipedia/commons/8/81/Komodo_dragon_Varanus_komodoensis_Ragunan_Zoo_2.JPG
p1713
aa(lp1714
g2
(g3
g4
Ntp1715
Rp1716
S'Y\x19\xad\xeb\xed\x7f\xa80\x0c\xbd\xfa\x84'
p1717
baVLasiodora parahybana
p1718
aVhttps://upload.wikimedia.org/wikipedia/commons/3/31/Lasiodora_parahybana_2009_G03.jpg
p1719
aa(lp1720
g2
(g3
g4
Ntp1721
Rp1722
S'Y\x19\xad\xeb\xed\x7f\xa80\x0c\xbd\xfa\x85'
p1723
baVBombus ignitus
p1724
aVhttps://upload.wikimedia.org/wikipedia/commons/8/80/Bombus_ignitus.jpg
p1725
aa(lp1726
g2
(g3
g4
Ntp1727
Rp1728
S'Y\x19\xad\xeb\xed\x7f\xa80\x0c\xbd\xfa\x86'
p1729
baVConus parius
p1730
aVhttps://upload.wikimedia.org/wikipedia/commons/b/b6/Conus_parius_1.jpg
p1731
aa(lp1732
g2
(g3
g4
Ntp1733
Rp1734
S'Y\x19\xad\xeb\xed\x7f\xa80\x0c\xbd\xfa\x87'
p1735
baVConus aurisiacus
p1736
aVhttps://upload.wikimedia.org/wikipedia/commons/8/8b/Conus_aurisiacus_1.jpg
p1737
aa(lp1738
g2
(g3
g4
Ntp1739
Rp1740
S'Y\x19\xad\xeb\xed\x7f\xa80\x0c\xbd\xfa\x88'
p1741
baVUrodacus yaschenkoi
p1742
aVhttps://upload.wikimedia.org/wikipedia/commons/4/41/Urodacus_yaschenkoi.jpg
p1743
aa(lp1744
g2
(g3
g4
Ntp1745
Rp1746
S'Y\x19\xad\xeb\xed\x7f\xa80\x0c\xbd\xfa\x89'
p1747
baVBungarus caeruleus
p1748
aVhttps://upload.wikimedia.org/wikipedia/commons/0/0d/Bungarus_caerulus.jpg
p1749
aa(lp1750
g2
(g3
g4
Ntp1751
Rp1752
S'Y\x19\xad\xeb\xed\x7f\xa80\x0c\xbd\xfa\x8a'
p1753
baVLiocheles waigiensis
p1754
aVhttps://upload.wikimedia.org/wikipedia/commons/e/e6/Liocheles_waigiensis_side_view.jpg
p1755
aa(lp1756
g2
(g3
g4
Ntp1757
Rp1758
S'Y\x19\xad\xeb\xed\x7f\xa80\x0c\xbd\xfa\x8c'
p1759
baVConus pennaceus
p1760
aVhttps://upload.wikimedia.org/wikipedia/commons/6/65/Conus_pennaceus_1.jpg
p1761
aa(lp1762
g2
(g3
g4
Ntp1763
Rp1764
S'Y\x19\xad\xeb\xed\x7f\xa80\x0c\xbd\xfa\x8f'
p1765
baVConus gloriamaris
p1766
aVhttps://upload.wikimedia.org/wikipedia/commons/9/94/Gloriamaris_186_3.jpg
p1767
aa(lp1768
g2
(g3
g4
Ntp1769
Rp1770
S'Y\x19\xad\xeb\xed\x7f\xa80\x0c\xbd\xfa\x91'
p1771
baVCrotalus basiliscus
p1772
aVhttps://upload.wikimedia.org/wikipedia/commons/3/37/Crotalus_basiliscus.jpg
p1773
aa(lp1774
g2
(g3
g4
Ntp1775
Rp1776
S'Y\x19\xad\xeb\xed\x7f\xa80\x0c\xbd\xfa\x92'
p1777
baVCrotalus viridis viridis
p1778
aVhttps://upload.wikimedia.org/wikipedia/commons/7/72/Coal_anthracite.jpg
p1779
aa(lp1780
g2
(g3
g4
Ntp1781
Rp1782
S'Y\x19\xad\xeb\xed\x7f\xa80\x0c\xbd\xfa\x93'
p1783
baVCrotalus oreganus helleri
p1784
aVhttps://upload.wikimedia.org/wikipedia/commons/2/23/Crotalus_viridis_helleri.jpg
p1785
aa(lp1786
g2
(g3
g4
Ntp1787
Rp1788
S'Y\x19\xad\xeb\xed\x7f\xa80\x0c\xbd\xfa\x95'
p1789
baVVipera nikolskii
p1790
aVhttps://upload.wikimedia.org/wikipedia/commons/d/d1/BennyTrapp_Vipera_nikolskii.jpg
p1791
aa(lp1792
g2
(g3
g4
Ntp1793
Rp1794
S'Y\x19\xad\xeb\xed\x7f\xa80\x0c\xbd\xfa\x96'
p1795
baVPolistes jokahamae
p1796
aVhttps://upload.wikimedia.org/wikipedia/commons/6/66/Polistes_jadwigae1.jpg
p1797
aa(lp1798
g2
(g3
g4
Ntp1799
Rp1800
S'Y\x19\xad\xeb\xed\x7f\xa80\x0c\xbd\xfa\x97'
p1801
baVRhopalurus junceus
p1802
aVhttps://upload.wikimedia.org/wikipedia/commons/c/cb/Rhopalurus_junceus.jpg
p1803
aa(lp1804
g2
(g3
g4
Ntp1805
Rp1806
S'Y\x19\xad\xec\xed\x7f\xa80\x0c\xbd\xfa\x98'
p1807
baVHeloderma suspectum suspectum
p1808
aVhttps://upload.wikimedia.org/wikipedia/commons/c/cd/Reticulate_Gila_Monster.jpg
p1809
aa(lp1810
g2
(g3
g4
Ntp1811
Rp1812
S'Y\x19\xad\xec\xed\x7f\xa80\x0c\xbd\xfa\x99'
p1813
baVHaplopelma schmidti
p1814
aVhttps://upload.wikimedia.org/wikipedia/commons/c/c2/Theraphosidae_-_Haplopelma_schmidti.JPG
p1815
aa(lp1816
g2
(g3
g4
Ntp1817
Rp1818
S'Y\x19\xad\xec\xed\x7f\xa80\x0c\xbd\xfa\x9a'
p1819
baVAtrax sp. (strain Illawarra)
p1820
aVhttps://upload.wikimedia.org/wikipedia/commons/d/db/Latin_alphabet_Aa.png
p1821
aa(lp1822
g2
(g3
g4
Ntp1823
Rp1824
S'Y\x19\xad\xec\xed\x7f\xa80\x0c\xbd\xfa\x9c'
p1825
baVProtonectarina sylveirae
p1826
aVhttps://upload.wikimedia.org/wikipedia/commons/d/d9/Protonectarina_sylveirae.JPG
p1827
aa(lp1828
g2
(g3
g4
Ntp1829
Rp1830
S'Y\x19\xad\xec\xed\x7f\xa80\x0c\xbd\xfa\x9e'
p1831
baVCentruroides margaritatus
p1832
aVhttps://upload.wikimedia.org/wikipedia/commons/d/d3/Naturkundliche_Sammlung_%C3%9Cbermaxx_%C3%9Cberseemuseum_Bremen_0056.JPG
p1833
aa(lp1834
g2
(g3
g4
Ntp1835
Rp1836
S'Y\x19\xad\xec\xed\x7f\xa80\x0c\xbd\xfa\x9f'
p1837
baVConus zeylanicus
p1838
aVhttps://upload.wikimedia.org/wikipedia/commons/4/44/Conus_zeylanicus_1.jpg
p1839
aa(lp1840
g2
(g3
g4
Ntp1841
Rp1842
S'Y\x19\xad\xec\xed\x7f\xa80\x0c\xbd\xfa\xa1'
p1843
baVAgkistrodon piscivorus conanti
p1844
aVhttps://upload.wikimedia.org/wikipedia/commons/9/92/Mocassin_d%27eau.jpg
p1845
aa(lp1846
g2
(g3
g4
Ntp1847
Rp1848
S'Y\x19\xad\xec\xed\x7f\xa80\x0c\xbd\xfa\xa3'
p1849
baVBitis arietans
p1850
aVhttps://upload.wikimedia.org/wikipedia/commons/4/48/Bitis_arietans.jpg
p1851
aa(lp1852
g2
(g3
g4
Ntp1853
Rp1854
S'Y\x19\xad\xec\xed\x7f\xa80\x0c\xbd\xfa\xa4'
p1855
baVAllagelena opulenta
p1856
aVhttps://upload.wikimedia.org/wikipedia/commons/4/4a/Agelenella_opulenta.jpg
p1857
aa(lp1858
g2
(g3
g4
Ntp1859
Rp1860
S'Y\x19\xad\xec\xed\x7f\xa80\x0c\xbd\xfa\xa5'
p1861
baVMicrurus surinamensis
p1862
aVhttps://upload.wikimedia.org/wikipedia/commons/a/a7/Aquatic_Coral_Snake_%28Micrurus_surinamensis%29_%2813929030809%29.jpg
p1863
aa(lp1864
g2
(g3
g4
Ntp1865
Rp1866
S'Y\x19\xad\xec\xed\x7f\xa80\x0c\xbd\xfa\xa6'
p1867
baVHeterometrus laoticus
p1868
aVhttps://upload.wikimedia.org/wikipedia/commons/8/8d/Asian_forest_scorpion_in_Khao_Yai_National_Park.JPG
p1869
aa(lp1870
g2
(g3
g4
Ntp1871
Rp1872
S'Y\x19\xad\xec\xed\x7f\xa80\x0c\xbd\xfa\xa7'
p1873
baVLasioglossum laticeps
p1874
aVhttps://upload.wikimedia.org/wikipedia/commons/5/55/Lasioglossum_laticeps.jpg
p1875
aa(lp1876
g2
(g3
g4
Ntp1877
Rp1878
S'Y\x19\xad\xec\xed\x7f\xa80\x0c\xbd\xfa\xa8'
p1879
baVEchis coloratus
p1880
aVhttps://upload.wikimedia.org/wikipedia/commons/0/08/%D7%90%D7%A4%D7%A2%D7%94_%D7%9E%D7%92%D7%95%D7%95%D7%9F-2.jpg
p1881
aa(lp1882
g2
(g3
g4
Ntp1883
Rp1884
S'Y\x19\xad\xec\xed\x7f\xa80\x0c\xbd\xfa\xa9'
p1885
baVPogona barbata
p1886
aVhttps://upload.wikimedia.org/wikipedia/commons/1/1b/Eastern-Bearded-Dragon-2.2%2C-Vic%2C-3.1.2008.jpg
p1887
aa(lp1888
g2
(g3
g4
Ntp1889
Rp1890
S'Y\x19\xad\xec\xed\x7f\xa80\x0c\xbd\xfa\xac'
p1891
baVNaja samarensis
p1892
aVhttps://upload.wikimedia.org/wikipedia/commons/b/bc/Naja_samarensis.jpg
p1893
aa(lp1894
g2
(g3
g4
Ntp1895
Rp1896
S'Y\x19\xad\xec\xed\x7f\xa80\x0c\xbd\xfa\xad'
p1897
baVVespa affinis
p1898
aVhttps://upload.wikimedia.org/wikipedia/commons/8/85/Vespa_affinis%2C_Thailand.jpg
p1899
aa(lp1900
g2
(g3
g4
Ntp1901
Rp1902
S'Y\x19\xad\xec\xed\x7f\xa80\x0c\xbd\xfa\xae'
p1903
baVOphiophagus hannah
p1904
aVhttps://upload.wikimedia.org/wikipedia/commons/b/b3/Ophiophagus_hannah_%281%29.jpg
p1905
aa(lp1906
g2
(g3
g4
Ntp1907
Rp1908
S'Y\x19\xad\xec\xed\x7f\xa80\x0c\xbd\xfa\xaf'
p1909
baVDaboia russelii
p1910
aVhttps://upload.wikimedia.org/wikipedia/commons/7/74/Daboia_russelii_A_Chawla01.jpg
p1911
aa(lp1912
g2
(g3
g4
Ntp1913
Rp1914
S'Y\x19\xad\xec\xed\x7f\xa80\x0c\xbd\xfa\xb0'
p1915
baVOxyuranus scutellatus scutellatus
p1916
aVhttps://upload.wikimedia.org/wikipedia/commons/f/fa/8_oxygen_%28O%29_Bohr_model.png
p1917
aa(lp1918
g2
(g3
g4
Ntp1919
Rp1920
S'Y\x19\xad\xec\xed\x7f\xa80\x0c\xbd\xfa\xb2'
p1921
baVVipera berus berus
p1922
aVhttps://upload.wikimedia.org/wikipedia/commons/4/48/Vanadium_1.jpg
p1923
aa(lp1924
g2
(g3
g4
Ntp1925
Rp1926
S'Y\x19\xad\xec\xed\x7f\xa80\x0c\xbd\xfa\xb3'
p1927
baVMicrurus mipartitus
p1928
aVhttps://upload.wikimedia.org/wikipedia/commons/3/33/Micrurus_mipartitus.jpg
p1929
aa(lp1930
g2
(g3
g4
Ntp1931
Rp1932
S'Y\x19\xad\xec\xed\x7f\xa80\x0c\xbd\xfa\xb4'
p1933
baVCrotalus molossus molossus
p1934
aVhttps://upload.wikimedia.org/wikipedia/commons/7/72/Coal_anthracite.jpg
p1935
aa(lp1936
g2
(g3
g4
Ntp1937
Rp1938
S'Y\x19\xad\xec\xed\x7f\xa80\x0c\xbd\xfa\xb5'
p1939
baVCrotalus durissus durissus
p1940
aVhttps://upload.wikimedia.org/wikipedia/commons/7/72/Coal_anthracite.jpg
p1941
aa(lp1942
g2
(g3
g4
Ntp1943
Rp1944
S'Y\x19\xad\xec\xed\x7f\xa80\x0c\xbd\xfa\xb7'
p1945
baVConus monachus
p1946
aVhttps://upload.wikimedia.org/wikipedia/commons/c/c9/Conus_monachus_003.jpg
p1947
aa(lp1948
g2
(g3
g4
Ntp1949
Rp1950
S'Y\x19\xad\xec\xed\x7f\xa80\x0c\xbd\xfa\xb8'
p1951
baVConus obscurus
p1952
aVhttps://upload.wikimedia.org/wikipedia/commons/7/73/Conus_obscurus_002.jpg
p1953
aa(lp1954
g2
(g3
g4
Ntp1955
Rp1956
S'Y\x19\xad\xec\xed\x7f\xa80\x0c\xbd\xfa\xb9'
p1957
baVConus litteratus
p1958
aVhttps://upload.wikimedia.org/wikipedia/commons/3/30/Conusliteratus.jpg
p1959
aa(lp1960
g2
(g3
g4
Ntp1961
Rp1962
S'Y\x19\xad\xec\xed\x7f\xa80\x0c\xbd\xfa\xba'
p1963
baVConus emaciatus
p1964
aVhttps://upload.wikimedia.org/wikipedia/commons/a/a8/Conus_emaciatus_1.jpg
p1965
aa(lp1966
g2
(g3
g4
Ntp1967
Rp1968
S'Y\x19\xad\xec\xed\x7f\xa80\x0c\xbd\xfa\xbb'
p1969
baVConus caracteristicus
p1970
aVhttps://upload.wikimedia.org/wikipedia/commons/1/1c/Conus_caracteristicus_1.jpg
p1971
aa(lp1972
g2
(g3
g4
Ntp1973
Rp1974
S'Y\x19\xad\xec\xed\x7f\xa80\x0c\xbd\xfa\xbc'
p1975
baVVipera aspis aspis
p1976
aVhttps://upload.wikimedia.org/wikipedia/commons/4/48/Vanadium_1.jpg
p1977
aa(lp1978
g2
(g3
g4
Ntp1979
Rp1980
S'Y\x19\xad\xec\xed\x7f\xa80\x0c\xbd\xfa\xbd'
p1981
baVDinoponera quadriceps
p1982
aVhttps://upload.wikimedia.org/wikipedia/commons/3/3e/Dinoponera_quadriceps_MHNT.jpg
p1983
aa(lp1984
g2
(g3
g4
Ntp1985
Rp1986
S'Y\x19\xad\xec\xed\x7f\xa80\x0c\xbd\xfa\xc1'
p1987
baVCrotalus durissus ruruima
p1988
aVhttps://upload.wikimedia.org/wikipedia/commons/7/72/Coal_anthracite.jpg
p1989
aa(lp1990
g2
(g3
g4
Ntp1991
Rp1992
S'Y\x19\xad\xec\xed\x7f\xa80\x0c\xbd\xfa\xc4'
p1993
baVNaja sputatrix
p1994
aVhttps://upload.wikimedia.org/wikipedia/commons/8/8c/Naja_sputatrix.jpg
p1995
aa(lp1996
g2
(g3
g4
Ntp1997
Rp1998
S'Y\x19\xad\xec\xed\x7f\xa80\x0c\xbd\xfa\xc7'
p1999
baVConus episcopatus
p2000
aVhttps://upload.wikimedia.org/wikipedia/commons/6/6f/Conus_episcopatus_1.jpg
p2001
aa(lp2002
g2
(g3
g4
Ntp2003
Rp2004
S'Y\x19\xad\xec\xed\x7f\xa80\x0c\xbd\xfa\xc8'
p2005
baVButhus sp. (strain IY-2001)
p2006
aVhttps://upload.wikimedia.org/wikipedia/commons/a/a2/Boron.jpg
p2007
aa(lp2008
g2
(g3
g4
Ntp2009
Rp2010
S'Y\x19\xad\xec\xed\x7f\xa80\x0c\xbd\xfa\xc9'
p2011
baVConus limpusi
p2012
aVhttps://upload.wikimedia.org/wikipedia/commons/d/d8/Conus_limpusi_1.jpg
p2013
aa(lp2014
g2
(g3
g4
Ntp2015
Rp2016
S'Y\x19\xad\xec\xed\x7f\xa80\x0c\xbd\xfa\xca'
p2017
baVParabuthus liosoma
p2018
aVhttps://upload.wikimedia.org/wikipedia/commons/f/fc/Buthidae_-_Parabuthus_liosoma.JPG
p2019
aa(lp2020
g2
(g3
g4
Ntp2021
Rp2022
S'Y\x19\xad\xec\xed\x7f\xa80\x0c\xbd\xfa\xcb'
p2023
baVGloydius saxatilis
p2024
aVhttps://upload.wikimedia.org/wikipedia/commons/b/b3/Gloydius_Saxatilis.jpg
p2025
aa(lp2026
g2
(g3
g4
Ntp2027
Rp2028
S'Y\x19\xad\xec\xed\x7f\xa80\x0c\xbd\xfa\xcc'
p2029
baVBitis rhinoceros
p2030
aVhttps://upload.wikimedia.org/wikipedia/commons/e/e8/Bitis_gabonica_rhinoceros.jpg
p2031
aa(lp2032
g2
(g3
g4
Ntp2033
Rp2034
S'Y\x19\xad\xec\xed\x7f\xa80\x0c\xbd\xfa\xd1'
p2035
baVSynanceia horrida
p2036
aVhttps://upload.wikimedia.org/wikipedia/commons/a/ab/Synanceia_horrida_Day.png
p2037
aa(lp2038
g2
(g3
g4
Ntp2039
Rp2040
S'Y\x19\xad\xec\xed\x7f\xa80\x0c\xbd\xfa\xd3'
p2041
baVHogna carolinensis
p2042
aVhttps://upload.wikimedia.org/wikipedia/commons/9/96/Hogna_carolinensis_female_PEM.jpg
p2043
aa(lp2044
g2
(g3
g4
Ntp2045
Rp2046
S'Y\x19\xad\xec\xed\x7f\xa80\x0c\xbd\xfa\xd4'
p2047
baVPorthidium nasutum
p2048
aVhttps://upload.wikimedia.org/wikipedia/commons/a/a7/Porthidium_nasutum_%28La_Selva_Biological_Station%29_2.jpg
p2049
aa(lp2050
g2
(g3
g4
Ntp2051
Rp2052
S'Y\x19\xad\xec\xed\x7f\xa80\x0c\xbd\xfa\xda'
p2053
baVErythrolamprus poecilogyrus
p2054
aVhttps://upload.wikimedia.org/wikipedia/commons/3/3a/Erythrolamprus_bizona.JPG
p2055
aa(lp2056
g2
(g3
g4
Ntp2057
Rp2058
S'Y\x19\xad\xec\xed\x7f\xa80\x0c\xbd\xfa\xdb'
p2059
baVProtobothrops flavoviridis
p2060
aVhttps://upload.wikimedia.org/wikipedia/commons/2/29/Habu-pitviper.jpg
p2061
aa(lp2062
g2
(g3
g4
Ntp2063
Rp2064
S'Y\x19\xad\xec\xed\x7f\xa80\x0c\xbd\xfa\xe0'
p2065
baVPseudonaja textilis
p2066
aVhttps://upload.wikimedia.org/wikipedia/commons/d/de/Eastern_Brown_Snake_-_Kempsey_NSW.jpg
p2067
aa(lp2068
g2
(g3
g4
Ntp2069
Rp2070
S'Y\x19\xad\xec\xed\x7f\xa80\x0c\xbd\xfa\xe1'
p2071
baVConus victoriae
p2072
aVhttps://upload.wikimedia.org/wikipedia/commons/6/64/Conus_victoriae_1.jpg
p2073
aa(lp2074
g2
(g3
g4
Ntp2075
Rp2076
S'Y\x19\xad\xec\xed\x7f\xa80\x0c\xbd\xfa\xe2'
p2077
baVSegestria florentina
p2078
aVhttps://upload.wikimedia.org/wikipedia/commons/f/fd/Spider_cutted.jpg
p2079
aa(lp2080
g2
(g3
g4
Ntp2081
Rp2082
S'Y\x19\xad\xec\xed\x7f\xa80\x0c\xbd\xfa\xe4'
p2083
baVAgkistrodon contortrix laticinctus
p2084
aVhttps://upload.wikimedia.org/wikipedia/commons/5/5a/Agkistrodon_contortrix_laticinctus2.jpg
p2085
aa(lp2086
g2
(g3
g4
Ntp2087
Rp2088
S'Y\x19\xad\xec\xed\x7f\xa80\x0c\xbd\xfa\xe5'
p2089
baVAustrelaps labialis
p2090
aVhttps://upload.wikimedia.org/wikipedia/commons/1/1d/Austrelaps_labialis_head.JPG
p2091
aa(lp2092
g2
(g3
g4
Ntp2093
Rp2094
S'Y\x19\xad\xec\xed\x7f\xa80\x0c\xbd\xfa\xe6'
p2095
baVMacrothele gigas
p2096
aVhttps://upload.wikimedia.org/wikipedia/commons/0/06/Macrothele.gigas.female.frontal.-.tanikawa.jpg
p2097
aa(lp2098
g2
(g3
g4
Ntp2099
Rp2100
S'Y\x19\xad\xec\xed\x7f\xa80\x0c\xbd\xfa\xe8'
p2101
baVCryptophis nigrescens
p2102
aVhttps://upload.wikimedia.org/wikipedia/commons/e/e8/Rhinoplocephalus_nigrescens.jpg
p2103
aa(lp2104
g2
(g3
g4
Ntp2105
Rp2106
S'Y\x19\xad\xec\xed\x7f\xa80\x0c\xbd\xfa\xe9'
p2107
baVConus achatinus
p2108
aVhttps://upload.wikimedia.org/wikipedia/commons/0/0a/Conus_achatinus_1.jpg
p2109
aa(lp2110
g2
(g3
g4
Ntp2111
Rp2112
S'Y\x19\xad\xec\xed\x7f\xa80\x0c\xbd\xfa\xeb'
p2113
baVPhlogius sp.
p2114
aVhttps://upload.wikimedia.org/wikipedia/commons/2/26/Theraphosi.jpg
p2115
aa(lp2116
g2
(g3
g4
Ntp2117
Rp2118
S'Y\x19\xad\xec\xed\x7f\xa80\x0c\xbd\xfa\xec'
p2119
baVMicrurus fulvius
p2120
aVhttps://upload.wikimedia.org/wikipedia/commons/3/3c/Coral_009.jpg
p2121
aa(lp2122
g2
(g3
g4
Ntp2123
Rp2124
S'Y\x19\xad\xed\xed\x7f\xa80\x0c\xbd\xfa\xef'
p2125
baVCalliophis bivirgata
p2126
aVhttps://upload.wikimedia.org/wikipedia/commons/9/9b/Calliophis_intestinalis_1916.jpg
p2127
aa(lp2128
g2
(g3
g4
Ntp2129
Rp2130
S'Y\x19\xad\xed\xed\x7f\xa80\x0c\xbd\xfa\xf2'
p2131
baVLaticauda laticaudata
p2132
aVhttps://upload.wikimedia.org/wikipedia/commons/8/80/Banded_Sea_Snake-jonhanson.jpg
p2133
aa(lp2134
g2
(g3
g4
Ntp2135
Rp2136
S'Y\x19\xad\xed\xed\x7f\xa80\x0c\xbd\xfa\xf3'
p2137
baVPsalmopoeus cambridgei
p2138
aVhttps://upload.wikimedia.org/wikipedia/commons/3/3b/Psalmopoeus_cambridgei_1.jpg
p2139
aa(lp2140
g2
(g3
g4
Ntp2141
Rp2142
S'Y\x19\xad\xed\xed\x7f\xa80\x0c\xbd\xfa\xf4'
p2143
baVPolystira albida
p2144
aVhttps://upload.wikimedia.org/wikipedia/commons/1/19/Polystira_albida_%28G._Perry%2C_1811%29_2013_000.JPG
p2145
aa(lp2146
g2
(g3
g4
Ntp2147
Rp2148
S'Y\x19\xad\xed\xed\x7f\xa80\x0c\xbd\xfa\xf5'
p2149
baVBothrops diporus
p2150
aVhttps://upload.wikimedia.org/wikipedia/commons/0/0a/Bothrops_neuwiedi_diporus_fer_de_lance_91.jpg
p2151
aa(lp2152
g2
(g3
g4
Ntp2153
Rp2154
S'Y\x19\xad\xed\xed\x7f\xa80\x0c\xbd\xfa\xf6'
p2155
baVVaranus acanthurus
p2156
aVhttps://upload.wikimedia.org/wikipedia/commons/e/e7/Ackies_Dwarf_Monitor.jpg
p2157
aa(lp2158
g2
(g3
g4
Ntp2159
Rp2160
S'Y\x19\xad\xed\xed\x7f\xa80\x0c\xbd\xfa\xf7'
p2161
baVCentruroides limbatus
p2162
aVhttps://upload.wikimedia.org/wikipedia/commons/8/86/Centruroides_limbatus%2C_Costa_Rica.JPG
p2163
aa(lp2164
g2
(g3
g4
Ntp2165
Rp2166
S'Y\x19\xad\xed\xed\x7f\xa80\x0c\xbd\xfa\xf8'
p2167
baVPelinobius muticus
p2168
aVhttps://upload.wikimedia.org/wikipedia/commons/7/75/Pelinobius_muticus_adult.jpg
p2169
aa(lp2170
g2
(g3
g4
Ntp2171
Rp2172
S'Y\x19\xad\xed\xed\x7f\xa80\x0c\xbd\xfa\xf9'
p2173
baVVipera aspis
p2174
aVhttps://upload.wikimedia.org/wikipedia/commons/d/d9/Vipera_aspis_aspis.jpg
p2175
aa(lp2176
g2
(g3
g4
Ntp2177
Rp2178
S'Y\x19\xad\xed\xed\x7f\xa80\x0c\xbd\xfa\xfa'
p2179
baVVipera ammodytes ammodytes
p2180
aVhttps://upload.wikimedia.org/wikipedia/commons/4/48/Vanadium_1.jpg
p2181
aa(lp2182
g2
(g3
g4
Ntp2183
Rp2184
S'Y\x19\xad\xed\xed\x7f\xa80\x0c\xbd\xfa\xfb'
p2185
baVHastula hectica
p2186
aVhttps://upload.wikimedia.org/wikipedia/commons/0/04/Hastula_hectica_001.jpg
p2187
aa(lp2188
g2
(g3
g4
Ntp2189
Rp2190
S'Y\x19\xad\xed\xed\x7f\xa80\x0c\xbd\xfa\xfc'
p2191
baVMacrovipera lebetina
p2192
aVhttps://upload.wikimedia.org/wikipedia/commons/d/d2/Macrovipera_lebetina_obtusa03.jpg
p2193
aa(lp2194
g2
(g3
g4
Ntp2195
Rp2196
S'Y\x19\xad\xed\xed\x7f\xa80\x0c\xbd\xfa\xfd'
p2197
baVGloydius blomhoffii
p2198
aVhttps://upload.wikimedia.org/wikipedia/commons/4/48/Mamushi_togurosugata.jpg
p2199
aa(lp2200
g2
(g3
g4
Ntp2201
Rp2202
S'Y\x19\xad\xed\xed\x7f\xa80\x0c\xbd\xfa\xff'
p2203
baVConus bandanus
p2204
aVhttps://upload.wikimedia.org/wikipedia/commons/d/db/Conus_bandanus_1.jpg
p2205
aa(lp2206
g2
(g3
g4
Ntp2207
Rp2208
S'Y\x19\xad\xed\xed\x7f\xa80\x0c\xbd\xfb\x00'
p2209
baVProtobothrops mangshanensis
p2210
aVhttps://upload.wikimedia.org/wikipedia/commons/6/68/Trimeresurus_mangshanensis.jpg
p2211
aa(lp2212
g2
(g3
g4
Ntp2213
Rp2214
S'Y\x19\xad\xed\xed\x7f\xa80\x0c\xbd\xfb\x01'
p2215
baVHydrophis schistosus
p2216
aVhttps://upload.wikimedia.org/wikipedia/commons/1/10/Hydrophis_-_Brehms.jpg
p2217
aa(lp2218
g2
(g3
g4
Ntp2219
Rp2220
S'Y\x19\xad\xed\xed\x7f\xa80\x0c\xbd\xfb\x02'
p2221
baVHadronyche versuta
p2222
aVhttps://upload.wikimedia.org/wikipedia/commons/e/ef/Atrax_Versutus.jpg
p2223
aa(lp2224
g2
(g3
g4
Ntp2225
Rp2226
S'Y\x19\xad\xed\xed\x7f\xa80\x0c\xbd\xfb\x03'
p2227
baVHydrophis cyanocinctus
p2228
aVhttps://upload.wikimedia.org/wikipedia/commons/8/8b/Hydrophis_cyanocinctus_lores.jpg
p2229
aa(lp2230
g2
(g3
g4
Ntp2231
Rp2232
S'Y\x19\xad\xed\xed\x7f\xa80\x0c\xbd\xfb\x04'
p2233
baVHydrophis lapemoides
p2234
aVhttps://upload.wikimedia.org/wikipedia/commons/c/c8/Bulletin_of_the_Natural_History_Museum_Zoology_%281993-94%29_%2820469704606%29.jpg
p2235
aa(lp2236
g2
(g3
g4
Ntp2237
Rp2238
S'Y\x19\xad\xed\xed\x7f\xa80\x0c\xbd\xfb\x05'
p2239
baVHydrophis ornatus
p2240
aVhttps://upload.wikimedia.org/wikipedia/commons/9/9b/Japan_sea_snake%2C_Ornate_Sea_Snake_%28Hydrophis_ornatus%29_%2815167155673%29.jpg
p2241
aa(lp2242
g2
(g3
g4
Ntp2243
Rp2244
S'Y\x19\xad\xed\xed\x7f\xa80\x0c\xbd\xfb\x06'
p2245
baVHydrophis platurus
p2246
aVhttps://upload.wikimedia.org/wikipedia/commons/1/13/Pelamis_platura%2C_Costa_Rica.jpg
p2247
aa(lp2248
g2
(g3
g4
Ntp2249
Rp2250
S'Y\x19\xad\xed\xed\x7f\xa80\x0c\xbd\xfb\x07'
p2251
baVAgelenopsis aperta
p2252
aVhttps://upload.wikimedia.org/wikipedia/commons/f/f6/Agelenopsis_spider_los_angeles_macro.jpg
p2253
aa(lp2254
g2
(g3
g4
Ntp2255
Rp2256
S'Y\x19\xad\xed\xed\x7f\xa80\x0c\xbd\xfb\t'
p2257
baVDiguetia canities
p2258
aVhttps://upload.wikimedia.org/wikipedia/commons/c/ce/Diguetia_canities.jpg
p2259
aa(lp2260
g2
(g3
g4
Ntp2261
Rp2262
S'Y\x19\xad\xed\xed\x7f\xa80\x0c\xbd\xfb\n'
p2263
baVCrotalus lepidus lepidus
p2264
aVhttps://upload.wikimedia.org/wikipedia/commons/7/72/Coal_anthracite.jpg
p2265
aa(lp2266
g2
(g3
g4
Ntp2267
Rp2268
S'Y\x19\xad\xed\xed\x7f\xa80\x0c\xbd\xfb\x0b'
p2269
baVConus generalis
p2270
aVhttps://upload.wikimedia.org/wikipedia/commons/0/0b/Conus_generalis_1.jpg
p2271
aa(lp2272
g2
(g3
g4
Ntp2273
Rp2274
S'Y\x19\xad\xed\xed\x7f\xa80\x0c\xbd\xfb\x0c'
p2275
baVConus leopardus
p2276
aVhttps://upload.wikimedia.org/wikipedia/commons/3/36/Conus_leopardus_003.jpg
p2277
aa(lp2278
g2
(g3
g4
Ntp2279
Rp2280
S'Y\x19\xad\xed\xed\x7f\xa80\x0c\xbd\xfb\r'
p2281
baVConus figulinus
p2282
aVhttps://upload.wikimedia.org/wikipedia/commons/1/1b/C%C3%B4ne_FiguesIII.png
p2283
aa(lp2284
g2
(g3
g4
Ntp2285
Rp2286
S'Y\x19\xad\xed\xed\x7f\xa80\x0c\xbd\xfb\x0e'
p2287
baVConus eburneus
p2288
aVhttps://upload.wikimedia.org/wikipedia/commons/4/4c/Conus_eburneus_polyglotta.jpg
p2289
aa(lp2290
g2
(g3
g4
Ntp2291
Rp2292
S'Y\x19\xad\xed\xed\x7f\xa80\x0c\xbd\xfb\x0f'
p2293
baVPterinochilus murinus
p2294
aVhttps://upload.wikimedia.org/wikipedia/commons/5/53/Pterinochilus_murinus.jpg
p2295
aa(lp2296
g2
(g3
g4
Ntp2297
Rp2298
S'Y\x19\xad\xed\xed\x7f\xa80\x0c\xbd\xfb\x10'
p2299
baVConus mustelinus
p2300
aVhttps://upload.wikimedia.org/wikipedia/commons/4/4b/Rhizoconus_mustelinus_01.JPG
p2301
aa(lp2302
g2
(g3
g4
Ntp2303
Rp2304
S'Y\x19\xad\xed\xed\x7f\xa80\x0c\xbd\xfb\x11'
p2305
baVHaplopelma lividum
p2306
aVhttps://upload.wikimedia.org/wikipedia/commons/9/96/FemaleH.lividum.JPG
p2307
aa(lp2308
g2
(g3
g4
Ntp2309
Rp2310
S'Y\x19\xad\xed\xed\x7f\xa80\x0c\xbd\xfb\x12'
p2311
baVConus rolani
p2312
aVhttps://upload.wikimedia.org/wikipedia/commons/9/99/Conus_rolani_1.jpg
p2313
aa(lp2314
g2
(g3
g4
Ntp2315
Rp2316
S'Y\x19\xad\xed\xed\x7f\xa80\x0c\xbd\xfb\x13'
p2317
baVHadronyche infensa
p2318
aVhttps://upload.wikimedia.org/wikipedia/commons/8/85/AustralianMuseum_spider_specimen_10.JPG
p2319
aa(lp2320
g2
(g3
g4
Ntp2321
Rp2322
S'Y\x19\xad\xed\xed\x7f\xa80\x0c\xbd\xfb\x16'
p2323
baVPachycondyla chinensis
p2324
aVhttps://upload.wikimedia.org/wikipedia/commons/a/a0/Brachyponera_chinensis_casent0104738_profile_1.jpg
p2325
aa(lp2326
g2
(g3
g4
Ntp2327
Rp2328
S'Y\x19\xad\xed\xed\x7f\xa80\x0c\xbd\xfb\x17'
p2329
baVAtractaspis engaddensis
p2330
aVhttps://upload.wikimedia.org/wikipedia/commons/8/86/Atractaspis_engaddensis.jpg
p2331
aa(lp2332
g2
(g3
g4
Ntp2333
Rp2334
S'Y\x19\xad\xed\xed\x7f\xa80\x0c\xbd\xfb\x18'
p2335
baVCrotalus molossus nigrescens
p2336
aVhttps://upload.wikimedia.org/wikipedia/commons/7/72/Coal_anthracite.jpg
p2337
aa(lp2338
g2
(g3
g4
Ntp2339
Rp2340
S'Y\x19\xad\xed\xed\x7f\xa80\x0c\xbd\xfb\x19'
p2341
baVTrimeresurus stejnegeri
p2342
aVhttps://upload.wikimedia.org/wikipedia/commons/a/a6/Trimeresurus_stejnegeri_Chinesische_Bambusotter.jpg
p2343
aa(lp2344
g2
(g3
g4
Ntp2345
Rp2346
S'Y\x19\xad\xed\xed\x7f\xa80\x0c\xbd\xfb\x1a'
p2347
baVConus suturatus
p2348
aVhttps://upload.wikimedia.org/wikipedia/commons/b/b2/Conus_suturatus_1.jpg
p2349
aa(lp2350
g2
(g3
g4
Ntp2351
Rp2352
S'Y\x19\xad\xed\xed\x7f\xa80\x0c\xbd\xfb\x1b'
p2353
baVDinoponera australis
p2354
aVhttps://upload.wikimedia.org/wikipedia/commons/1/18/Dinoponera_australis%2C_one_of_the_world%27s_largest_ants.jpg
p2355
aa(lp2356
g2
(g3
g4
Ntp2357
Rp2358
S'Y\x19\xad\xed\xed\x7f\xa80\x0c\xbd\xfb\x1c'
p2359
baVConus lynceus
p2360
aVhttps://upload.wikimedia.org/wikipedia/commons/f/f3/Conus_lynceus_003.jpg
p2361
aa(lp2362
g2
(g3
g4
Ntp2363
Rp2364
S'Y\x19\xad\xed\xed\x7f\xa80\x0c\xbd\xfb\x1e'
p2365
baVButhus occitanus
p2366
aVhttps://upload.wikimedia.org/wikipedia/commons/a/a0/Buthus_occitanus.jpg
p2367
aa(lp2368
g2
(g3
g4
Ntp2369
Rp2370
S'Y\x19\xad\xed\xed\x7f\xa80\x0c\xbd\xfb '
p2371
baVAgkistrodon piscivorus leucostoma
p2372
aVhttps://upload.wikimedia.org/wikipedia/commons/d/d2/Agkistrodon_piscivorus_leucostoma.jpg
p2373
aa(lp2374
g2
(g3
g4
Ntp2375
Rp2376
S'Y\x19\xad\xed\xed\x7f\xa80\x0c\xbd\xfb!'
p2377
baVGemmula kieneri
p2378
aVhttps://upload.wikimedia.org/wikipedia/commons/e/ea/Gemmula_kieneri_02.JPG
p2379
aa(lp2380
g2
(g3
g4
Ntp2381
Rp2382
S'Y\x19\xad\xed\xed\x7f\xa80\x0c\xbd\xfb$'
p2383
baVEchis multisquamatus
p2384
aVhttps://upload.wikimedia.org/wikipedia/commons/3/39/Saw_Scaled_Viper_Echis_carinatus.jpg
p2385
aa(lp2386
g2
(g3
g4
Ntp2387
Rp2388
S'Y\x19\xad\xed\xed\x7f\xa80\x0c\xbd\xfb&'
p2389
baVCoelognathus radiatus
p2390
aVhttps://upload.wikimedia.org/wikipedia/commons/2/25/AB097_Elaphe_helena.JPG
p2391
aa(lp2392
g2
(g3
g4
Ntp2393
Rp2394
S'Y\x19\xad\xed\xed\x7f\xa80\x0c\xbd\xfb('
p2395
baVConus nigropunctatus
p2396
aVhttps://upload.wikimedia.org/wikipedia/commons/8/8f/Conus_nigropunctatus_003.jpg
p2397
aa(lp2398
g2
(g3
g4
Ntp2399
Rp2400
S'Y\x19\xad\xed\xed\x7f\xa80\x0c\xbd\xfb)'
p2401
baVVespa velutina nigrithorax
p2402
aVhttps://upload.wikimedia.org/wikipedia/commons/4/48/Vanadium_1.jpg
p2403
aa(lp2404
g2
(g3
g4
Ntp2405
Rp2406
S'Y\x19\xad\xed\xed\x7f\xa80\x0c\xbd\xfb*'
p2407
baVPolistes hebraeus
p2408
aVhttps://upload.wikimedia.org/wikipedia/commons/f/f1/Polistes_hebraeus_nest2.JPG
p2409
aa(lp2410
g2
(g3
g4
Ntp2411
Rp2412
S'Y\x19\xad\xed\xed\x7f\xa80\x0c\xbd\xfb+'
p2413
baVPhilodryas olfersii
p2414
aVhttps://upload.wikimedia.org/wikipedia/commons/e/e0/Philodryas_olfersii.jpg
p2415
aa(lp2416
g2
(g3
g4
Ntp2417
Rp2418
S'Y\x19\xad\xed\xed\x7f\xa80\x0c\xbd\xfb-'
p2419
baVConus anabathrum floridanus
p2420
aVhttps://upload.wikimedia.org/wikipedia/commons/7/72/Coal_anthracite.jpg
p2421
aa(lp2422
g2
(g3
g4
Ntp2423
Rp2424
S'Y\x19\xad\xed\xed\x7f\xa80\x0c\xbd\xfb.'
p2425
baVAzemiops feae
p2426
aVhttps://upload.wikimedia.org/wikipedia/commons/8/89/Azemiops_feae.jpg
p2427
aa(lp2428
g2
(g3
g4
Ntp2429
Rp2430
S'Y\x19\xad\xed\xed\x7f\xa80\x0c\xbd\xfb/'
p2431
baVTropidolaemus wagleri
p2432
aVhttps://upload.wikimedia.org/wikipedia/commons/3/3b/Tropidolaemus_wagleri.jpg
p2433
aa(lp2434
g2
(g3
g4
Ntp2435
Rp2436
S'Y\x19\xad\xed\xed\x7f\xa80\x0c\xbd\xfb0'
p2437
baVPimpla hypochondriaca
p2438
aVhttps://upload.wikimedia.org/wikipedia/commons/9/96/Ichneumonidae_-_Pimpla_cf._instigator.JPG
p2439
aa(lp2440
g2
(g3
g4
Ntp2441
Rp2442
S'Y\x19\xad\xed\xed\x7f\xa80\x0c\xbd\xfb1'
p2443
baVTityus serrulatus
p2444
aVhttps://upload.wikimedia.org/wikipedia/commons/c/c9/Escorpiao2.jpg
p2445
aa(lp2446
g2
(g3
g4
Ntp2447
Rp2448
S'Y\x19\xad\xed\xed\x7f\xa80\x0c\xbd\xfb4'
p2449
baVCentruroides suffusus suffusus
p2450
aVhttps://upload.wikimedia.org/wikipedia/commons/7/72/Coal_anthracite.jpg
p2451
aa(lp2452
g2
(g3
g4
Ntp2453
Rp2454
S'Y\x19\xad\xed\xed\x7f\xa80\x0c\xbd\xfb5'
p2455
baVCrotalus durissus vegrandis
p2456
aVhttps://upload.wikimedia.org/wikipedia/commons/2/2c/Crotale_venezuela_19.JPG
p2457
aa(lp2458
g2
(g3
g4
Ntp2459
Rp2460
S'Y\x19\xad\xed\xed\x7f\xa80\x0c\xbd\xfb6'
p2461
baVAphonopelma sp.
p2462
aVhttps://upload.wikimedia.org/wikipedia/commons/2/21/Aphonopelma_chalcodes.jpg
p2463
aa(lp2464
g2
(g3
g4
Ntp2465
Rp2466
S'Y\x19\xad\xed\xed\x7f\xa80\x0c\xbd\xfb8'
p2467
baVAndroctonus amoreuxi
p2468
aVhttps://upload.wikimedia.org/wikipedia/commons/6/65/Androctonus_amoreuxi%2C_Israel_2.jpg
p2469
aa(lp2470
g2
(g3
g4
Ntp2471
Rp2472
S'Y\x19\xad\xed\xed\x7f\xa80\x0c\xbd\xfb9'
p2473
baVConus anemone
p2474
aVhttps://upload.wikimedia.org/wikipedia/commons/4/46/Conus_anemone_1.jpg
p2475
aa(lp2476
g2
(g3
g4
Ntp2477
Rp2478
S'Y\x19\xad\xed\xed\x7f\xa80\x0c\xbd\xfb:'
p2479
baVConus araneosus
p2480
aVhttps://upload.wikimedia.org/wikipedia/commons/5/59/Conus_araneosus_002.jpg
p2481
aa(lp2482
g2
(g3
g4
Ntp2483
Rp2484
S'Y\x19\xad\xed\xed\x7f\xa80\x0c\xbd\xfb;'
p2485
baVAtrax robustus
p2486
aVhttps://upload.wikimedia.org/wikipedia/commons/9/9f/Atrax_robustus.jpg
p2487
aa(lp2488
g2
(g3
g4
Ntp2489
Rp2490
S'Y\x19\xad\xed\xed\x7f\xa80\x0c\xbd\xfb<'
p2491
baVConus asiaticus
p2492
aVhttps://upload.wikimedia.org/wikipedia/commons/2/2c/Conus_asiaticus_1.jpg
p2493
aa(lp2494
g2
(g3
g4
Ntp2495
Rp2496
S'Y\x19\xad\xed\xed\x7f\xa80\x0c\xbd\xfb='
p2497
baVConus brunneus
p2498
aVhttps://upload.wikimedia.org/wikipedia/commons/2/20/Conus_brunneus.JPG
p2499
aa(lp2500
g2
(g3
g4
Ntp2501
Rp2502
S'Y\x19\xad\xed\xed\x7f\xa80\x0c\xbd\xfb>'
p2503
baVConus tulipa
p2504
aVhttps://upload.wikimedia.org/wikipedia/commons/6/6d/Conus_tulipa_1.jpg
p2505
aa(lp2506
g2
(g3
g4
Ntp2507
Rp2508
S'Y\x19\xad\xed\xed\x7f\xa80\x0c\xbd\xfb?'
p2509
baVConus textile
p2510
aVhttps://upload.wikimedia.org/wikipedia/commons/7/7d/Textile_cone.JPG
p2511
aa(lp2512
g2
(g3
g4
Ntp2513
Rp2514
S'Y\x19\xad\xee\xed\x7f\xa80\x0c\xbd\xfb@'
p2515
baVConus geographus
p2516
aVhttps://upload.wikimedia.org/wikipedia/commons/7/79/Conus-geographicus.jpg
p2517
aa(lp2518
g2
(g3
g4
Ntp2519
Rp2520
S'Y\x19\xad\xee\xed\x7f\xa80\x0c\xbd\xfbA'
p2521
baVLatrodectus hesperus
p2522
aVhttps://upload.wikimedia.org/wikipedia/commons/a/a4/Latrodectus_hesperus_1.jpg
p2523
aa(lp2524
g2
(g3
g4
Ntp2525
Rp2526
S'Y\x19\xad\xee\xed\x7f\xa80\x0c\xbd\xfbB'
p2527
baVConus striatus
p2528
aVhttps://upload.wikimedia.org/wikipedia/commons/5/56/Pionoconus_striatus_01.JPG
p2529
aa(lp2530
g2
(g3
g4
Ntp2531
Rp2532
S'Y\x19\xad\xee\xed\x7f\xa80\x0c\xbd\xfbC'
p2533
baVConus magus
p2534
aVhttps://upload.wikimedia.org/wikipedia/commons/c/c4/Conus_magus_001.jpg
p2535
aa(lp2536
g2
(g3
g4
Ntp2537
Rp2538
S'Y\x19\xad\xee\xed\x7f\xa80\x0c\xbd\xfbD'
p2539
baVLatrodectus hasseltii
p2540
aVhttps://upload.wikimedia.org/wikipedia/commons/8/8f/Latrodectus_hasseltii_close.jpg
p2541
aa(lp2542
g2
(g3
g4
Ntp2543
Rp2544
S'Y\x19\xad\xee\xed\x7f\xa80\x0c\xbd\xfbE'
p2545
baVNotechis scutatus niger
p2546
aVhttps://upload.wikimedia.org/wikipedia/commons/5/5c/CompassRose16_white.PNG
p2547
aa(lp2548
g2
(g3
g4
Ntp2549
Rp2550
S'Y\x19\xad\xee\xed\x7f\xa80\x0c\xbd\xfbF'
p2551
baVAncylometes sp.
p2552
aVhttps://upload.wikimedia.org/wikipedia/commons/6/6a/Ancylometes_fg01.jpg
p2553
aa(lp2554
g2
(g3
g4
Ntp2555
Rp2556
S'Y\x19\xad\xee\xed\x7f\xa80\x0c\xbd\xfbG'
p2557
baVHadrurus gertschi
p2558
aVhttps://upload.wikimedia.org/wikipedia/commons/2/2c/Hadrurus_spadix.png
p2559
aa(lp2560
g2
(g3
g4
Ntp2561
Rp2562
S'Y\x19\xad\xee\xed\x7f\xa80\x0c\xbd\xfbI'
p2563
baVCrotalus tzabcan
p2564
aVhttps://upload.wikimedia.org/wikipedia/commons/e/e7/YucatanNeotropicalRattlesnake_CincinnatiZoo.jpg
p2565
aa(lp2566
g2
(g3
g4
Ntp2567
Rp2568
S'Y\x19\xad\xee\xed\x7f\xa80\x0c\xbd\xfbJ'
p2569
baVConus ochroleucus
p2570
aVhttps://upload.wikimedia.org/wikipedia/commons/3/31/Conus_ochroleucus_001.jpg
p2571
aa(lp2572
g2
(g3
g4
Ntp2573
Rp2574
S'Y\x19\xad\xee\xed\x7f\xa80\x0c\xbd\xfbK'
p2575
baVConus rattus
p2576
aVhttps://upload.wikimedia.org/wikipedia/commons/a/a3/Rat_Cone_-_Conus_rattus.jpg
p2577
aa(lp2578
g2
(g3
g4
Ntp2579
Rp2580
S'Y\x19\xad\xee\xed\x7f\xa80\x0c\xbd\xfbL'
p2581
baVConus distans
p2582
aVhttps://upload.wikimedia.org/wikipedia/commons/9/9a/Conus_distans_1.jpg
p2583
aa(lp2584
g2
(g3
g4
Ntp2585
Rp2586
S'Y\x19\xad\xee\xed\x7f\xa80\x0c\xbd\xfbN'
p2587
baVBoiga dendrophila
p2588
aVhttps://upload.wikimedia.org/wikipedia/commons/b/bc/Boiga_dendrophila.jpg
p2589
aa(lp2590
g2
(g3
g4
Ntp2591
Rp2592
S'Y\x19\xad\xee\xed\x7f\xa80\x0c\xbd\xfbO'
p2593
baVHeteroscodra maculata
p2594
aVhttps://upload.wikimedia.org/wikipedia/commons/a/a9/Heteroscodra_maculata_Pocock%2C_1899.jpg
p2595
aa(lp2596
g2
(g3
g4
Ntp2597
Rp2598
S'Y\x19\xad\xee\xed\x7f\xa80\x0c\xbd\xfbQ'
p2599
baVMissulena bradleyi
p2600
aVhttps://upload.wikimedia.org/wikipedia/commons/5/5e/Mouse_spider02.jpg
p2601
aa(lp2602
g2
(g3
g4
Ntp2603
Rp2604
S'Y\x19\xad\xee\xed\x7f\xa80\x0c\xbd\xfbR'
p2605
baVPseudechis porphyriacus
p2606
aVhttps://upload.wikimedia.org/wikipedia/commons/a/a7/Red-Bellied-Black-Snake-BFP-2.jpg
p2607
aa(lp2608
g2
(g3
g4
Ntp2609
Rp2610
S'Y\x19\xad\xee\xed\x7f\xa80\x0c\xbd\xfbS'
p2611
baVPseudechis australis
p2612
aVhttps://upload.wikimedia.org/wikipedia/commons/2/2d/Kingbrownsnake.jpg
p2613
aa(lp2614
g2
(g3
g4
Ntp2615
Rp2616
S'Y\x19\xad\xee\xed\x7f\xa80\x0c\xbd\xfbT'
p2617
baVHydrophis peronii
p2618
aVhttps://upload.wikimedia.org/wikipedia/commons/1/10/Hydrophis_-_Brehms.jpg
p2619
aa(lp2620
g2
(g3
g4
Ntp2621
Rp2622
S'Y\x19\xad\xee\xed\x7f\xa80\x0c\xbd\xfbU'
p2623
baVHeterometrus petersii
p2624
aVhttps://upload.wikimedia.org/wikipedia/commons/2/24/%C5%A0t%C3%ADr.jpg
p2625
aa(lp2626
g2
(g3
g4
Ntp2627
Rp2628
S'Y\x19\xad\xee\xed\x7f\xa80\x0c\xbd\xfbV'
p2629
baVAipysurus laevis
p2630
aVhttps://upload.wikimedia.org/wikipedia/commons/9/90/Aipysurus_laevis.jpg
p2631
aa(lp2632
g2
(g3
g4
Ntp2633
Rp2634
S'Y\x19\xad\xee\xed\x7f\xa80\x0c\xbd\xfbX'
p2635
baVOxyuranus scutellatus canni
p2636
aVhttps://upload.wikimedia.org/wikipedia/commons/f/fa/8_oxygen_%28O%29_Bohr_model.png
p2637
aa(lp2638
g2
(g3
g4
Ntp2639
Rp2640
S'Y\x19\xad\xee\xed\x7f\xa80\x0c\xbd\xfbY'
p2641
baVVipera renardi
p2642
aVhttps://upload.wikimedia.org/wikipedia/commons/d/d0/Viper2.jpg
p2643
aa(lp2644
g2
(g3
g4
Ntp2645
Rp2646
S'Y\x19\xad\xee\xed\x7f\xa80\x0c\xbd\xfbZ'
p2647
baVDaboia siamensis
p2648
aVhttps://upload.wikimedia.org/wikipedia/commons/5/59/Daboia-siamensis-siamese-russells-viper-thailand.jpg
p2649
aa(lp2650
g2
(g3
g4
Ntp2651
Rp2652
S'Y\x19\xad\xee\xed\x7f\xa80\x0c\xbd\xfb['
p2653
baVHeloderma horridum horridum
p2654
aVhttps://upload.wikimedia.org/wikipedia/commons/b/b3/Mexican_beaded_lizard_at_Las_Vegas_Zoo.JPG
p2655
aa(lp2656
g2
(g3
g4
Ntp2657
Rp2658
S'Y\x19\xad\xee\xed\x7f\xa80\x0c\xbd\xfb\\'
p2659
baVApis florea
p2660
aVhttps://upload.wikimedia.org/wikipedia/commons/7/73/Apis_florea_worker_1.jpg
p2661
aa(lp2662
g2
(g3
g4
Ntp2663
Rp2664
S'Y\x19\xad\xee\xed\x7f\xa80\x0c\xbd\xfb]'
p2665
baVHeloderma suspectum
p2666
aVhttps://upload.wikimedia.org/wikipedia/commons/a/ab/Gila_monster2.JPG
p2667
aa(lp2668
g2
(g3
g4
Ntp2669
Rp2670
S'Y\x19\xad\xee\xed\x7f\xa80\x0c\xbd\xfb^'
p2671
baVMyrmecia pilosula
p2672
aVhttps://upload.wikimedia.org/wikipedia/commons/9/9e/Jumping_jack_dragging_pebble.jpg
p2673
aa(lp2674
g2
(g3
g4
Ntp2675
Rp2676
S'Y\x19\xad\xee\xed\x7f\xa80\x0c\xbd\xfb_'
p2677
baVVaranus varius
p2678
aVhttps://upload.wikimedia.org/wikipedia/commons/b/bf/Goanna_head2.jpg
p2679
aa(lp2680
g2
(g3
g4
Ntp2681
Rp2682
S'Y\x19\xad\xee\xed\x7f\xa80\x0c\xbd\xfba'
p2683
baVTrimeresurus puniceus
p2684
aVhttps://upload.wikimedia.org/wikipedia/commons/e/e7/Trimeresurus_puniceus_vipere_nez_plat_67.jpg
p2685
aa(lp2686
g2
(g3
g4
Ntp2687
Rp2688
S'Y\x19\xad\xee\xed\x7f\xa80\x0c\xbd\xfbc'
p2689
baVAcanthoscurria paulensis
p2690
aVhttps://upload.wikimedia.org/wikipedia/commons/a/a5/Acanthoscurria_paulensis.JPG
p2691
aa(lp2692
g2
(g3
g4
Ntp2693
Rp2694
S'Y\x19\xad\xee\xed\x7f\xa80\x0c\xbd\xfbf'
p2695
baVAtropoides nummifer
p2696
aVhttps://upload.wikimedia.org/wikipedia/commons/1/1e/Atropoides-nummifer-1a.jpg
p2697
aa(lp2698
g2
(g3
g4
Ntp2699
Rp2700
S'Y\x19\xad\xee\xed\x7f\xa80\x0c\xbd\xfbj'
p2701
baVLophiotoma acuta
p2702
aVhttps://upload.wikimedia.org/wikipedia/commons/1/1a/Lophiotoma_acuta_01.JPG
p2703
aa(lp2704
g2
(g3
g4
Ntp2705
Rp2706
S'Y\x19\xad\xee\xed\x7f\xa80\x0c\xbd\xfbk'
p2707
baVOreumenes decoratus
p2708
aVhttps://upload.wikimedia.org/wikipedia/commons/1/1f/%E3%82%B9%E3%82%BA%E3%83%90%E3%83%81_%28Oreumenes_decoratus%29_%2815324603967%29.jpg
p2709
aa(lp2710
g2
(g3
g4
Ntp2711
Rp2712
S'Y\x19\xad\xee\xed\x7f\xa80\x0c\xbd\xfbl'
p2713
baVLophiotoma olangoensis
p2714
aVhttps://upload.wikimedia.org/wikipedia/commons/7/7d/Lophiotoma_olangoensis_002.jpg
p2715
aa(lp2716
g2
(g3
g4
Ntp2717
Rp2718
S'Y\x19\xad\xee\xed\x7f\xa80\x0c\xbd\xfbm'
p2719
baVApis dorsata
p2720
aVhttps://upload.wikimedia.org/wikipedia/commons/4/4d/ApisDorsataHive.jpg
p2721
aa(lp2722
g2
(g3
g4
Ntp2723
Rp2724
S'Y\x19\xad\xee\xed\x7f\xa80\x0c\xbd\xfbn'
p2725
baVApis cerana
p2726
aVhttps://upload.wikimedia.org/wikipedia/commons/e/ec/Cerana.jpg
p2727
aa(lp2728
g2
(g3
g4
Ntp2729
Rp2730
S'Y\x19\xad\xee\xed\x7f\xa80\x0c\xbd\xfbo'
p2731
baVApis mellifera
p2732
aVhttps://upload.wikimedia.org/wikipedia/commons/d/d9/Apis_mellifera_Tanzania.jpg
p2733
aa.