(lp1
(VCarcinoma, Lewis Lung
p2
(lp3
VP8292027
p4
atp5
a(VThrombocytopenia
p6
(lp7
VP2026775
p8
aVP2026775
p9
aVP2026775
p10
aVP0384160
p11
aVP8979265
p12
atp13
a(VMacular Degeneration
p14
(lp15
VP2495544
p16
aVP9366047
p17
atp18
a(VSevere Acute Respiratory Syndrome
p19
(lp20
VP6193558
p21
atp22
a(VNeovascularization, Pathologic
p23
(lp24
VP6189429
p25
aVP7217169
p26
aVP1629201
p27
aVP8681763
p28
aVP0228371
p29
aVP7892654
p30
aVP1631152
p31
atp32
a(VLong QT Syndrome
p33
(lp34
VP7083851
p35
aVP7083851
p36
aVP4886954
p37
atp38
a(VChronic Pain
p39
(lp40
VP4531055
p41
aVP7449454
p42
aVP5440861
p43
atp44
a(VThrombophilia
p45
(lp46
VP0897234
p47
atp48
a(VParaplegia
p49
(lp50
VP4794405
p51
atp52
a(VCarcinoma, Ehrlich Tumor
p53
(lp54
VP7949303
p55
aVP3885651
p56
aVP2005907
p57
aVP2596410
p58
aVP5785610
p59
atp60
a(VTremor
p61
(lp62
VP1543521
p63
aVP2161045
p64
atp65
a(VLeukemia, Myelogenous, Chronic, BCR-ABL Positive
p66
(lp67
VP4888617
p68
aVP2350249
p69
aVP1710142
p70
aVP8233341
p71
atp72
a(VOvarian Neoplasms
p73
(lp74
VP7217169
p75
aVP7217169
p76
aVP6715050
p77
atp78
a(VHypotension
p79
(lp80
VP2263478
p81
aVP5606282
p82
aVP8378885
p83
aVP6120124
p84
aVP8439114
p85
aVP9919031
p86
aVP2312393
p87
aVP9946241
p88
aVP8523162
p89
atp90
a(VHemoglobinuria, Paroxysmal
p91
(lp92
VP2495544
p93
aVP9366047
p94
atp95
a(VThrombasthenia
p96
(lp97
VP0021049
p98
aVP1266121
p99
atp100
a(VAtrial Fibrillation
p101
(lp102
VP4012089
p103
aVP8042024
p104
atp105
a(VProstatic Neoplasms
p106
(lp107
VP6715050
p108
aVP1710142
p109
atp110
a(VHemoglobinuria
p111
(lp112
VP9559134
p113
atp114
a(VThrombosis
p115
(lp116
VP4230185
p117
aVP8525081
p118
aVP6862310
p119
aVP3097392
p120
atp121
a(VWeight Loss
p122
(lp123
VP7217169
p124
atp125
a(VBone Resorption
p126
(lp127
VP1278035
p128
aVP2350249
p129
aVP7360638
p130
aVP1710142
p131
aVP8233341
p132
aVP1674800
p133
atp134
a(VVenous Thrombosis
p135
(lp136
VP3630008
p137
aVP8262542
p138
atp139
a(VOccupational Diseases
p140
(lp141
VP2624532
p142
aVP3179424
p143
atp144
a(VPoisoning
p145
(lp146
VP5899718
p147
aVP9991917
p148
aVP9447029
p149
aVP1229212
p150
atp151
a(VArrhythmias, Cardiac
p152
(lp153
VP1446795
p154
atp155
a(VPancreatic Neoplasms
p156
(lp157
VP6715050
p158
atp159
a(VBrain Neoplasms
p160
(lp161
VP0228371
p162
aVP0228371
p163
aVP0228371
p164
aVP0228371
p165
aVP8692651
p166
aVP9229862
p167
aVP7877907
p168
atp169
a(VNeurogenic Inflammation
p170
(lp171
VP8138781
p172
atp173
a(VNeuralgia
p174
(lp175
VP7449454
p176
aVP5440861
p177
aVP1543521
p178
aVP2161045
p179
aVP2498375
p180
atp181
a(VSepsis
p182
(lp183
VP8525081
p184
atp185
a(VSkin Neoplasms
p186
(lp187
VP1555309
p188
aVP8990295
p189
aVP3271048
p190
atp191
a(VColonic Neoplasms
p192
(lp193
VP6715050
p194
atp195
a(VAnaphylaxis
p196
(lp197
VP6912376
p198
aVP0231537
p199
aVP9270162
p200
atp201
a(VNeoplasm Recurrence, Local
p202
(lp203
VP0228371
p204
atp205
a(VUterine Cervical Neoplasms
p206
(lp207
VP0269126
p208
aVP2572469
p209
aVP4787867
p210
aVP6194785
p211
atp212
a(VSpasm
p213
(lp214
VP4425282
p215
aVP7694977
p216
atp217
a(VSeizures
p218
(lp219
VP8812492
p220
aVP3077021
p221
aVP0314897
p222
aVP2757273
p223
aVP4528361
p224
aVP7694977
p225
atp226
a(VSciatic Neuropathy
p227
(lp228
VP1592741
p229
aVP5440861
p230
aVP4440651
p231
atp232
a(VChemical and Drug Induced Liver Injury
p233
(lp234
VP3341464
p235
atp236
a(VHeart Block
p237
(lp238
VP4012089
p239
atp240
a(VUrinary Bladder Neoplasms
p241
(lp242
VP6715050
p243
atp244
a(VLung Neoplasms
p245
(lp246
VP6189429
p247
aVP6189429
p248
aVP5892797
p249
aVP2325804
p250
aVP7217169
p251
aVP7217169
p252
aVP3271048
p253
aVP9736348
p254
aVP0368022
p255
aVP0581495
p256
atp257
a(VIschemia
p258
(lp259
VP5047831
p260
aVP4857491
p261
atp262
a(VNeuroblastoma
p263
(lp264
VP2904696
p265
aVP8454411
p266
aVP7083851
p267
aVP3757243
p268
aVP8608637
p269
aVP9229862
p270
aVP7877907
p271
atp272
a(VSpider Bites
p273
(lp274
VP7953251
p275
aVP7345834
p276
aVP1797972
p277
aVP7445785
p278
aVP2129653
p279
aVP8606551
p280
atp281
a(VCarcinoma
p282
(lp283
VP6189429
p284
aVP6715050
p285
atp286
a(VLeukemia L1210
p287
(lp288
VP5826928
p289
atp290
a(VSkin Diseases, Infectious
p291
(lp292
VP9419312
p293
atp294
a(VChronic Disease
p295
(lp296
VP4440651
p297
aVP2161045
p298
atp299
a(VParalysis
p300
(lp301
VP5007222
p302
aVP3723052
p303
aVP7517675
p304
aVP9255397
p305
aVP3188710
p306
aVP4959748
p307
aVP0061988
p308
aVP6101802
p309
aVP3466097
p310
aVP5035716
p311
aVP4514253
p312
aVP8523065
p313
aVP4387398
p314
aVP5517641
p315
aVP5836091
p316
aVP5084119
p317
aVP3947521
p318
aVP3150330
p319
aVP2906605
p320
aVP7300544
p321
aVP1530825
p322
aVP6218398
p323
aVP0468789
p324
atp325
a(VRenal Insufficiency
p326
(lp327
VP5837112
p328
atp329
a(VEosinophilia
p330
(lp331
VP6194785
p332
aVP4440651
p333
atp334
a(VPain
p335
(lp336
VP0566202
p337
aVP1998607
p338
aVP1998607
p339
aVP9729921
p340
aVP1592741
p341
aVP8730020
p342
aVP0395148
p343
aVP3576214
p344
aVP1073088
p345
aVP0772103
p346
aVP7449454
p347
aVP5440861
p348
aVP8439988
p349
aVP1543521
p350
aVP6194785
p351
aVP3958759
p352
aVP8138781
p353
aVP4440651
p354
aVP4440651
p355
aVP8616038
p356
aVP5366860
p357
aVP2749265
p358
aVP3593548
p359
aVP2691286
p360
aVP2161045
p361
aVP6339262
p362
aVP2498375
p363
atp364
a(VLiver Neoplasms
p365
(lp366
VP1700563
p367
aVP3271048
p368
aVP6264760
p369
aVP6536355
p370
atp371
a(VLeishmaniasis
p372
(lp373
VP7101578
p374
atp375
a(VNeuritis
p376
(lp377
VP3990402
p378
aVP4528361
p379
aVP1144524
p380
atp381
a(VAlzheimer Disease
p382
(lp383
VP9235706
p384
atp385
a(VEdema
p386
(lp387
VP9180369
p388
aVP7480221
p389
aVP6413702
p390
aVP4372416
p391
aVP1212167
p392
aVP6267802
p393
aVP0836110
p394
aVP1875316
p395
aVP0174414
p396
aVP0666500
p397
aVP8414340
p398
aVP5525551
p399
aVP6304619
p400
aVP3504453
p401
aVP8442455
p402
aVP8111453
p403
aVP6481394
p404
aVP7109593
p405
aVP5402666
p406
aVP9688850
p407
aVP1734147
p408
aVP1515545
p409
aVP7779438
p410
aVP5436413
p411
aVP2798126
p412
aVP4127643
p413
aVP7491609
p414
aVP6891896
p415
aVP0957758
p416
aVP5279035
p417
aVP3482617
p418
aVP2440152
p419
aVP8095723
p420
aVP2672431
p421
aVP6460033
p422
aVP7796681
p423
aVP7796681
p424
aVP8274041
p425
aVP9683454
p426
aVP9683454
p427
aVP9241547
p428
aVP0402668
p429
aVP5912531
p430
aVP3094970
p431
aVP6710077
p432
aVP0748527
p433
aVP9208027
p434
aVP3440199
p435
aVP4733476
p436
aVP0459066
p437
aVP6874728
p438
aVP7850546
p439
aVP7993401
p440
aVP6486875
p441
aVP7547888
p442
aVP6348888
p443
aVP0971258
p444
aVP0196155
p445
aVP9175666
p446
aVP2334734
p447
aVP7544215
p448
aVP2526157
p449
aVP7060386
p450
aVP7509900
p451
aVP0374662
p452
aVP1546014
p453
aVP5790614
p454
aVP7176505
p455
aVP2583531
p456
aVP5182099
p457
aVP2366907
p458
aVP6039905
p459
aVP9326354
p460
aVP8329308
p461
aVP4133209
p462
aVP2383655
p463
aVP3204868
p464
aVP8846859
p465
aVP6457052
p466
aVP1994663
p467
aVP1994663
p468
aVP0558897
p469
aVP1841565
p470
aVP6197231
p471
aVP2866885
p472
aVP8552353
p473
aVP8852844
p474
atp475
a(VNeuromuscular Diseases
p476
(lp477
VP9741875
p478
atp479
a(VBlood Loss, Surgical
p480
(lp481
VP2308462
p482
aVP2308462
p483
aVP6608408
p484
aVP6608408
p485
aVP6608408
p486
aVP2729099
p487
aVP3870507
p488
aVP2624859
p489
aVP3909808
p490
atp491
a(VCarcinoma, Hepatocellular
p492
(lp493
VP1700563
p494
aVP6264760
p495
aVP6536355
p496
atp497
a(VAkathisia, Drug-Induced
p498
(lp499
VP1977010
p500
aVP4034262
p501
aVP8171527
p502
atp503
a(VLiver Diseases
p504
(lp505
VP3341464
p506
atp507
a(VHypertension
p508
(lp509
VP9750652
p510
aVP3224650
p511
atp512
a(VProstatic Hyperplasia
p513
(lp514
VP9919031
p515
atp516
a(VHemorrhage
p517
(lp518
VP0600368
p519
aVP7480221
p520
aVP2211440
p521
aVP0780014
p522
aVP6598976
p523
aVP3557068
p524
aVP1882451
p525
aVP3286256
p526
aVP2308462
p527
aVP6608408
p528
aVP6608408
p529
aVP7712821
p530
aVP6816053
p531
aVP3614946
p532
aVP3397423
p533
aVP8378885
p534
aVP3504453
p535
aVP8442455
p536
aVP7344837
p537
aVP7344837
p538
aVP7344837
p539
aVP6128219
p540
aVP5276807
p541
aVP7491609
p542
aVP1842419
p543
aVP6817221
p544
aVP8095723
p545
aVP0540347
p546
aVP0540347
p547
aVP0540347
p548
aVP0540347
p549
aVP6884709
p550
aVP6884709
p551
aVP1453627
p552
aVP1453627
p553
aVP0837173
p554
aVP5111740
p555
aVP0384160
p556
aVP8979265
p557
aVP2672431
p558
aVP6460033
p559
aVP1233287
p560
aVP9683454
p561
aVP2799238
p562
aVP1846494
p563
aVP2672317
p564
aVP2994017
p565
aVP0166039
p566
aVP7272116
p567
aVP5938046
p568
aVP6795332
p569
aVP2919021
p570
aVP4808482
p571
aVP1621301
p572
aVP0402668
p573
aVP0402668
p574
aVP3888216
p575
aVP3832883
p576
aVP6652114
p577
aVP8737798
p578
aVP7783262
p579
aVP2237306
p580
aVP2237306
p581
aVP7993401
p582
aVP2487385
p583
aVP6655212
p584
aVP8948439
p585
aVP9716563
p586
aVP9716563
p587
aVP0583699
p588
aVP3423895
p589
aVP3810587
p590
aVP3973622
p591
aVP8461511
p592
aVP8285059
p593
aVP3480967
p594
aVP9759327
p595
aVP7607396
p596
aVP1994663
p597
aVP4606420
p598
aVP1610160
p599
aVP5229934
p600
atp601
a(VOsteoporosis
p602
(lp603
VP6408283
p604
atp605
a(VNeurotoxicity Syndromes
p606
(lp607
VP6069168
p608
atp609
a(VThrombophlebitis
p610
(lp611
VP0614804
p612
aVP0535666
p613
atp614
a(VMelanoma
p615
(lp616
VP1555309
p617
aVP6189429
p618
aVP5892797
p619
aVP2325804
p620
aVP0751059
p621
aVP6715050
p622
aVP3271048
p623
aVP3271048
p624
aVP9736348
p625
aVP3481368
p626
aVP7891337
p627
aVP3276741
p628
aVP0368022
p629
atp630
a(VBlood Coagulation Disorders
p631
(lp632
VP0897234
p633
atp634
a(VScorpion Stings
p635
(lp636
VP6966922
p637
aVP8116934
p638
aVP5803460
p639
aVP2904696
p640
aVP6850582
p641
aVP8565083
p642
aVP9214401
p643
aVP6324614
p644
aVP1615390
p645
aVP2773629
p646
aVP2110274
p647
aVP6116873
p648
aVP2759421
p649
aVP8336141
p650
aVP6983311
p651
aVP9499478
p652
aVP1796011
p653
aVP6652965
p654
aVP1322104
p655
aVP4039666
p656
aVP4601364
p657
aVP4981024
p658
aVP9091879
p659
aVP3976919
p660
aVP7480416
p661
aVP3991308
p662
aVP2324846
p663
aVP0356435
p664
aVP7791594
p665
aVP8834740
p666
aVP4935793
p667
aVP7922477
p668
aVP8938506
p669
aVP7264530
p670
aVP9095060
p671
aVP7661010
p672
aVP5455720
p673
aVP1698386
p674
aVP0595989
p675
aVP5264392
p676
aVP4675747
p677
aVP6242653
p678
aVP2713391
p679
aVP8785024
p680
aVP6527964
p681
aVP6274562
p682
aVP9499188
p683
aVP0086313
p684
aVP3525669
p685
aVP7251104
p686
aVP9864240
p687
aVP8714515
p688
aVP5754138
p689
aVP4185485
p690
aVP3424711
p691
aVP7288695
p692
aVP5838162
p693
aVP0440125
p694
aVP8837493
p695
aVP0468511
p696
aVP3585701
p697
aVP1234212
p698
aVP5548577
p699
atp700
a(VKidney Neoplasms
p701
(lp702
VP6715050
p703
atp704
a(VDiarrhea
p705
(lp706
VP6194785
p707
aVP4440651
p708
atp709
a(VNeuromuscular Junction Diseases
p710
(lp711
VP5131638
p712
aVP2900059
p713
aVP9794787
p714
aVP2690244
p715
aVP9541015
p716
aVP4160436
p717
aVP6259171
p718
aVP1733900
p719
aVP6273612
p720
aVP1977733
p721
aVP3576146
p722
atp723
a(VHypersensitivity
p724
(lp725
VP0337887
p726
aVP1059979
p727
aVP5398630
p728
aVP5398630
p729
aVP6363511
p730
aVP5461952
p731
atp732
a(VInflammation
p733
(lp734
VP7480221
p735
aVP1998607
p736
aVP1278035
p737
aVP0691470
p738
aVP0666500
p739
aVP2350249
p740
aVP7360638
p741
aVP0395148
p742
aVP3576214
p743
aVP1073088
p744
aVP5505074
p745
aVP1710142
p746
aVP8233341
p747
aVP0402668
p748
aVP0402668
p749
aVP0402668
p750
aVP6710077
p751
aVP1335339
p752
aVP7993401
p753
aVP1674800
p754
aVP4185485
p755
aVP1994663
p756
aVP1994663
p757
aVP1841565
p758
aVP2498375
p759
atp760
a(VInsulinoma
p761
(lp762
VP7577210
p763
atp764
a(VNeoplasm Metastasis
p765
(lp766
VP1629201
p767
aVP1629201
p768
aVP6715050
p769
aVP5979166
p770
aVP3271048
p771
aVP3271048
p772
aVP7892654
p773
atp774
a(VLeukemia, T-Cell
p775
(lp776
VP0046980
p777
aVP5826928
p778
atp779
a(VBrain Ischemia
p780
(lp781
VP9750652
p782
atp783
a(VMeasles
p784
(lp785
VP6193558
p786
atp787
a(VPeripheral Nervous System Diseases
p788
(lp789
VP1592741
p790
aVP4440651
p791
atp792
a(VLeukemia
p793
(lp794
VP6715050
p795
aVP6408283
p796
atp797
a(VBreast Neoplasms
p798
(lp799
VP0046980
p800
aVP1843810
p801
aVP1629201
p802
aVP2681708
p803
aVP6715050
p804
aVP6715050
p805
aVP9574454
p806
atp807
a(VErectile Dysfunction
p808
(lp809
VP3224650
p810
atp811
a(VNeoplasms, Experimental
p812
(lp813
VP0080354
p814
aVP9468676
p815
aVP2449729
p816
atp817
a(VLeukemia, Promyelocytic, Acute
p818
(lp819
VP4888617
p820
aVP2350249
p821
aVP1710142
p822
aVP8233341
p823
atp824
a(VConstriction, Pathologic
p825
(lp826
VP4440651
p827
atp828
a(VAutoimmune Diseases
p829
(lp830
VP9714740
p831
aVP0994063
p832
aVP0437416
p833
aVP5179705
p834
aVP8127332
p835
aVP9750652
p836
aVP6814835
p837
aVP9170368
p838
aVP1260698
p839
atp840
a(VNecrosis
p841
(lp842
VP1278035
p843
aVP8494199
p844
aVP5837112
p845
aVP5837112
p846
aVP6147595
p847
aVP6840981
p848
aVP0844711
p849
aVP8414340
p850
aVP1734147
p851
aVP1515545
p852
aVP7779438
p853
aVP2350249
p854
aVP7360638
p855
aVP0751059
p856
aVP5783445
p857
aVP7953251
p858
aVP7953251
p859
aVP7953251
p860
aVP8095723
p861
aVP2079497
p862
aVP2912857
p863
aVP1710142
p864
aVP1710142
p865
aVP8233341
p866
aVP8233341
p867
aVP0748527
p868
aVP7345834
p869
aVP7345834
p870
aVP1797972
p871
aVP7445785
p872
aVP7850546
p873
aVP0257924
p874
aVP2237306
p875
aVP7993401
p876
aVP9559134
p877
aVP0196155
p878
aVP1674800
p879
aVP8692651
p880
aVP8738685
p881
aVP7445166
p882
aVP7775635
p883
aVP0146387
p884
aVP5733110
p885
aVP6039905
p886
aVP2383655
p887
aVP7767952
p888
aVP8846859
p889
aVP8846859
p890
aVP5120294
p891
aVP5458543
p892
aVP1558752
p893
aVP9294664
p894
aVP6457052
p895
aVP6457052
p896
aVP1994663
p897
aVP1317905
p898
aVP2920387
p899
aVP8679459
p900
atp901
a(VInfluenza, Human
p902
(lp903
VP6193558
p904
atp905
a(VLambert-Eaton Myasthenic Syndrome
p906
(lp907
VP5047831
p908
atp909
a(VFasciculation
p910
(lp911
VP9235706
p912
aVP9938871
p913
atp914
a(VSarcoma, Yoshida
p915
(lp916
VP1700563
p917
aVP2350249
p918
aVP7360638
p919
aVP8233341
p920
aVP6264760
p921
atp922
a(VTetany
p923
(lp924
VP2616980
p925
aVP8232980
p926
atp927
a(VSkin Diseases
p928
(lp929
VP7953251
p930
atp931
a(VEpilepsy
p932
(lp933
VP6163143
p934
aVP1745998
p935
aVP7119998
p936
aVP2757273
p937
aVP1255792
p938
atp939
a(VDisease Progression
p940
(lp941
VP7217169
p942
atp943
a(VDisseminated Intravascular Coagulation
p944
(lp945
VP8525081
p946
aVP8525081
p947
aVP3061937
p948
aVP1260705
p949
atp950
a(VStaphylococcal Infections
p951
(lp952
VP9419312
p953
aVP1723185
p954
aVP2670166
p955
atp956
a(VRespiratory Insufficiency
p957
(lp958
VP2749265
p959
aVP6069168
p960
aVP2498375
p961
atp962
a(VNeoplasm Invasiveness
p963
(lp964
VP6189429
p965
aVP7217169
p966
aVP0228371
p967
aVP9229862
p968
aVP7877907
p969
aVP3507226
p970
aVP9731635
p971
atp972
a(VNeoplasms
p973
(lp974
VP1278035
p975
aVP5047831
p976
aVP8990295
p977
aVP7217169
p978
aVP2350249
p979
aVP7360638
p980
aVP0228371
p981
aVP5440861
p982
aVP1710142
p983
aVP8233341
p984
aVP6194785
p985
aVP4440651
p986
aVP1674800
p987
aVP8184328
p988
atp989
a(VHypersensitivity, Immediate
p990
(lp991
VP4557822
p992
aVP2624532
p993
aVP3179424
p994
aVP0231537
p995
aVP9270162
p996
aVP0665996
p997
atp998
a(VPeripheral Nerve Injuries
p999
(lp1000
VP7449454
p1001
atp1002
a(VImmune System Diseases
p1003
(lp1004
VP0691470
p1005
aVP4935793
p1006
aVP4185485
p1007
atp1008
a(VCerebral Infarction
p1009
(lp1010
VP8653817
p1011
aVP5683523
p1012
atp1013
a(VKidney Tubular Necrosis, Acute
p1014
(lp1015
VP0751059
p1016
atp1017
a(VNervous System Diseases
p1018
(lp1019
VP7572001
p1020
aVP9750652
p1021
aVP0146387
p1022
atp1023
a(VSnake Bites
p1024
(lp1025
VP1219123
p1026
aVP4882861
p1027
aVP1882451
p1028
aVP1882451
p1029
aVP0046980
p1030
aVP4372416
p1031
aVP1659358
p1032
aVP2019935
p1033
aVP9932718
p1034
aVP5735287
p1035
aVP4678860
p1036
aVP0427020
p1037
aVP0559108
p1038
aVP9541470
p1039
aVP3326417
p1040
aVP8309132
p1041
aVP8809196
p1042
aVP2729917
p1043
aVP4661625
p1044
aVP9358046
p1045
aVP0561418
p1046
aVP6442986
p1047
aVP6509817
p1048
aVP8039978
p1049
aVP6654097
p1050
aVP7079628
p1051
aVP1544314
p1052
aVP7667556
p1053
atp1054
a(VFibrosarcoma
p1055
(lp1056
VP7891337
p1057
aVP6339262
p1058
atp1059
a(VLeukemia, Erythroblastic, Acute
p1060
(lp1061
VP4163085
p1062
atp1063
a(VHeart Failure
p1064
(lp1065
VP4612760
p1066
aVP4612760
p1067
aVP4612760
p1068
atp1069
a(VMyocardial Reperfusion Injury
p1070
(lp1071
VP2495544
p1072
aVP9366047
p1073
atp1074
a(VArthritis
p1075
(lp1076
VP2495544
p1077
aVP9180369
p1078
aVP9366047
p1079
aVP5683523
p1080
atp1081
a(VGenetic Diseases, Inborn
p1082
(lp1083
VP8681647
p1084
atp1085
a(VLung Diseases
p1086
(lp1087
VP0402668
p1088
aVP0402668
p1089
atp1090
a(VHyperalgesia
p1091
(lp1092
VP0566202
p1093
aVP1998607
p1094
aVP7792729
p1095
aVP9167771
p1096
aVP8730020
p1097
aVP5525551
p1098
aVP0459066
p1099
aVP6874728
p1100
aVP4440651
p1101
aVP6486875
p1102
aVP0674631
p1103
atp1104
a(VDisease Models, Animal
p1105
(lp1106
VP0566202
p1107
aVP6193558
p1108
aVP4531055
p1109
aVP4612760
p1110
aVP6163143
p1111
aVP1592741
p1112
aVP8990295
p1113
aVP0614804
p1114
aVP8730020
p1115
aVP2572469
p1116
aVP5177842
p1117
aVP4787867
p1118
aVP9208627
p1119
aVP0535666
p1120
aVP9419312
p1121
aVP2757273
p1122
aVP5440861
p1123
aVP6194785
p1124
aVP8525081
p1125
aVP8525081
p1126
aVP8138781
p1127
aVP4440651
p1128
aVP0711512
p1129
aVP8481184
p1130
aVP1052929
p1131
aVP8616038
p1132
aVP3593548
p1133
aVP3224650
p1134
atp1135
a(VIrritable Bowel Syndrome
p1136
(lp1137
VP0566202
p1138
aVP8730020
p1139
atp1140
a(VDiabetes Mellitus, Type 2
p1141
(lp1142
VP4891754
p1143
aVP5730495
p1144
atp1145
a(VMuscular Diseases
p1146
(lp1147
VP5007222
p1148
aVP9683454
p1149
aVP9683454
p1150
aVP5733110
p1151
aVP1994663
p1152
atp1153
a(VDiplopia
p1154
(lp1155
VP6194785
p1156
aVP4440651
p1157
atp1158
a(VMelanoma, Experimental
p1159
(lp1160
VP6189429
p1161
aVP5892797
p1162
aVP2325804
p1163
aVP8990295
p1164
aVP1629201
p1165
aVP4070535
p1166
aVP3271048
p1167
aVP3271048
p1168
aVP9736348
p1169
aVP7987768
p1170
atp1171
a(VInsect Bites and Stings
p1172
(lp1173
VP6912376
p1174
aVP9208627
p1175
aVP9469166
p1176
aVP4459513
p1177
aVP9673365
p1178
aVP1671594
p1179
aVP6363511
p1180
aVP5461952
p1181
atp1182
a(VHepatitis B
p1183
(lp1184
VP6193558
p1185
aVP9419312
p1186
aVP0711512
p1187
aVP8481184
p1188
aVP1052929
p1189
atp1190
a(VStarvation
p1191
(lp1192
VP0691470
p1193
aVP7339385
p1194
aVP2110274
p1195
aVP4935793
p1196
aVP7595274
p1197
aVP9642981
p1198
aVP7661010
p1199
aVP6993598
p1200
aVP4185485
p1201
atp1202
a(VKidney Diseases
p1203
(lp1204
VP5837112
p1205
aVP3347264
p1206
atp1207
a(VAcute Pain
p1208
(lp1209
VP4531055
p1210
atp1211
a(VHyperkinesis
p1212
(lp1213
VP2665481
p1214
aVP5035716
p1215
aVP4514253
p1216
aVP8523065
p1217
aVP4387398
p1218
aVP5517641
p1219
aVP8571127
p1220
aVP6338012
p1221
aVP1530825
p1222
atp1223
a(VGlioma
p1224
(lp1225
VP8626451
p1226
aVP0228371
p1227
aVP0228371
p1228
aVP0228371
p1229
aVP0228371
p1230
aVP5979166
p1231
aVP5979166
p1232
aVP7083851
p1233
aVP3757243
p1234
aVP8608637
p1235
atp1236
a(VOsteosarcoma
p1237
(lp1238
VP4722144
p1239
atp1240
a(VGlioblastoma
p1241
(lp1242
VP6715050
p1243
atp1244
a(VProteinuria
p1245
(lp1246
VP5837112
p1247
atp1248
a(VHemolysis
p1249
(lp1250
VP3553493
p1251
aVP5019286
p1252
aVP2117184
p1253
aVP1278035
p1254
aVP3781726
p1255
aVP7915415
p1256
aVP5240294
p1257
aVP2117987
p1258
aVP6026359
p1259
aVP0633805
p1260
aVP7817193
p1261
aVP0351819
p1262
aVP1151148
p1263
aVP5032104
p1264
aVP0731510
p1265
aVP6742302
p1266
aVP0997291
p1267
aVP6748895
p1268
aVP5837112
p1269
aVP5837112
p1270
aVP5837112
p1271
aVP6147595
p1272
aVP6147595
p1273
aVP3932806
p1274
aVP3932806
p1275
aVP1265641
p1276
aVP1265641
p1277
aVP5115191
p1278
aVP5115191
p1279
aVP8601814
p1280
aVP0196542
p1281
aVP0196542
p1282
aVP0196542
p1283
aVP0196542
p1284
aVP4448711
p1285
aVP1425230
p1286
aVP7454390
p1287
aVP2008324
p1288
aVP6901866
p1289
aVP3097393
p1290
aVP8990295
p1291
aVP1480181
p1292
aVP1480181
p1293
aVP1480181
p1294
aVP0174414
p1295
aVP8047195
p1296
aVP8922347
p1297
aVP9743166
p1298
aVP5749077
p1299
aVP8876810
p1300
aVP1583392
p1301
aVP6481394
p1302
aVP5196137
p1303
aVP0825290
p1304
aVP0825290
p1305
aVP7491609
p1306
aVP8626451
p1307
aVP2350249
p1308
aVP2350249
p1309
aVP7360638
p1310
aVP7360638
p1311
aVP6354094
p1312
aVP9523404
p1313
aVP6391165
p1314
aVP6030395
p1315
aVP9249180
p1316
aVP2215229
p1317
aVP3318006
p1318
aVP0673264
p1319
aVP5783445
p1320
aVP7953251
p1321
aVP7953251
p1322
aVP7953251
p1323
aVP8592678
p1324
aVP8874106
p1325
aVP0505090
p1326
aVP1698791
p1327
aVP6162733
p1328
aVP0540347
p1329
aVP2672431
p1330
aVP6460033
p1331
aVP6460033
p1332
aVP0537612
p1333
aVP2912857
p1334
aVP6291356
p1335
aVP9225220
p1336
aVP0831605
p1337
aVP0831605
p1338
aVP6219462
p1339
aVP2006654
p1340
aVP2006654
p1341
aVP4727497
p1342
aVP9863585
p1343
aVP1710142
p1344
aVP8233341
p1345
aVP8274041
p1346
aVP5045022
p1347
aVP9683454
p1348
aVP9683454
p1349
aVP7650301
p1350
aVP9241547
p1351
aVP4935834
p1352
aVP4402070
p1353
aVP9856550
p1354
aVP0131651
p1355
aVP2254212
p1356
aVP7026277
p1357
aVP9549928
p1358
aVP8525081
p1359
aVP8979872
p1360
aVP0748527
p1361
aVP7345834
p1362
aVP7345834
p1363
aVP1797972
p1364
aVP7445785
p1365
aVP6447843
p1366
aVP1335339
p1367
aVP8369279
p1368
aVP0459066
p1369
aVP6874728
p1370
aVP4111032
p1371
aVP6733687
p1372
aVP5696202
p1373
aVP0257924
p1374
aVP0711512
p1375
aVP3870528
p1376
aVP1052929
p1377
aVP4801493
p1378
aVP0732915
p1379
aVP8667651
p1380
aVP3133404
p1381
aVP6036308
p1382
aVP8079228
p1383
aVP1820727
p1384
aVP9593626
p1385
aVP8156633
p1386
aVP7176505
p1387
aVP8101420
p1388
aVP7394640
p1389
aVP0209641
p1390
aVP3943317
p1391
aVP3943317
p1392
aVP0137567
p1393
aVP6777778
p1394
aVP1723185
p1395
aVP9412548
p1396
aVP9145777
p1397
aVP9145777
p1398
aVP9145777
p1399
aVP5041385
p1400
aVP5041385
p1401
aVP4495444
p1402
aVP6288775
p1403
aVP7775635
p1404
aVP8849742
p1405
aVP2582158
p1406
aVP2467511
p1407
aVP3863321
p1408
aVP4130946
p1409
aVP2049183
p1410
aVP0146387
p1411
aVP0029781
p1412
aVP7280759
p1413
aVP8842643
p1414
aVP6165455
p1415
aVP5709828
p1416
aVP6618736
p1417
aVP4125278
p1418
aVP7723490
p1419
aVP8889872
p1420
aVP5129788
p1421
aVP2670166
p1422
aVP0526556
p1423
aVP7650478
p1424
aVP3703017
p1425
aVP4014439
p1426
aVP9310416
p1427
aVP3187412
p1428
aVP6069630
p1429
aVP3963504
p1430
aVP3039742
p1431
aVP7428244
p1432
aVP8640933
p1433
aVP8384192
p1434
aVP9930620
p1435
aVP4205067
p1436
aVP4205067
p1437
aVP4205067
p1438
aVP0021466
p1439
aVP8508910
p1440
aVP1473189
p1441
aVP7584662
p1442
aVP7742943
p1443
aVP5805812
p1444
aVP5805812
p1445
aVP1329011
p1446
aVP1329011
p1447
aVP3362089
p1448
aVP3362089
p1449
aVP3338267
p1450
aVP6605094
p1451
aVP6605094
p1452
aVP3604345
p1453
aVP1199536
p1454
aVP5490457
p1455
aVP8698314
p1456
aVP8695026
p1457
aVP6677345
p1458
aVP8451726
p1459
aVP2743430
p1460
aVP2111637
p1461
aVP8945108
p1462
aVP9681191
p1463
aVP7990705
p1464
atp1465
a(VSciatica
p1466
(lp1467
VP3990402
p1468
aVP4528361
p1469
aVP1144524
p1470
atp1471
a(VHeart Diseases
p1472
(lp1473
VP7360638
p1474
aVP1343075
p1475
aVP8082370
p1476
aVP6204036
p1477
aVP1710142
p1478
aVP1915041
p1479
aVP7704420
p1480
aVP8233341
p1481
aVP1674800
p1482
atp1483
a.