ccopy_reg
_reconstructor
p0
(c__main__
GOgraph
p1
c__builtin__
object
p2
Ntp3
Rp4
(dp5
S'_graph'
p6
(dp7
S'GO:0004252'
p8
(lp9
S'GO:0008236'
p10
aS'GO:0004175'
p11
asS'GO:0007599'
p12
(lp13
S'GO:0050878'
p14
asS'GO:0045216'
p15
(lp16
S'GO:0034330'
p17
asS'GO:0051046'
p18
(lp19
S'GO:0046903'
p20
aS'GO:0051049'
p21
asS'GO:0051047'
p22
(lp23
S'GO:0046903'
p24
aS'GO:0051046'
p25
aS'GO:0051050'
p26
asS'GO:0051049'
p27
(lp28
S'GO:0006810'
p29
aS'GO:0032879'
p30
asS'GO:0007596'
p31
(lp32
S'GO:0042060'
p33
ag12
aS'GO:0050817'
p34
asS'GO:0033655'
p35
(lp36
S'GO:0030430'
p37
aS'GO:0033646'
p38
asS'GO:0009166'
p39
(lp40
S'GO:1901292'
p41
aS'GO:0009117'
p42
asS'GO:0003796'
p43
(lp44
S'GO:0004553'
p45
aS'GO:0061783'
p46
asS'GO:0002705'
p47
(lp48
S'GO:0002443'
p49
aS'GO:0002699'
p50
aS'GO:0002703'
p51
asS'GO:0009165'
p52
(lp53
S'GO:1901293'
p54
aS'GO:0009117'
p55
asg51
(lp56
S'GO:0002443'
p57
aS'GO:0002697'
p58
asS'GO:0044281'
p59
(lp60
S'GO:0008152'
p61
asS'GO:0001507'
p62
(lp63
S'GO:0007271'
p64
aS'GO:0006581'
p65
asS'GO:0032388'
p66
(lp67
S'GO:0046907'
p68
aS'GO:0032386'
p69
aS'GO:0051050'
p70
asS'GO:0044325'
p71
(lp72
S'GO:0005515'
p73
asS'GO:0098772'
p74
(lp75
S'GO:0003674'
p76
aS'GO:0065009'
p77
aS'GO:0003674'
p78
asS'GO:0046434'
p79
(lp80
S'GO:0019637'
p81
aS'GO:1901575'
p82
asS'GO:0051715'
p83
(lp84
S'GO:0031640'
p85
aS'GO:0044764'
p86
aS'GO:0019835'
p87
asS'GO:0051716'
p88
(lp89
S'GO:0050896'
p90
aS'GO:0009987'
p91
asS'GO:0044492'
p92
(lp93
S'GO:0044560'
p94
asS'GO:0043207'
p95
(lp96
S'GO:0009605'
p97
aS'GO:0009607'
p98
asS'GO:0044551'
p99
(lp100
S'GO:0044500'
p101
asS'GO:0044553'
p102
(lp103
S'GO:0035821'
p104
asS'GO:0018212'
p105
(lp106
S'GO:0018193'
p107
asS'GO:0044555'
p108
(lp109
S'GO:0010459'
p110
aS'GO:0044554'
p111
asS'GO:0000166'
p112
(lp113
S'GO:1901265'
p114
aS'GO:0036094'
p115
asS'GO:0042981'
p116
(lp117
S'GO:0006915'
p118
aS'GO:0043067'
p119
asS'GO:0004713'
p120
(lp121
S'GO:0018108'
p122
aS'GO:0004672'
p123
asS'GO:0009190'
p124
(lp125
S'GO:0009187'
p126
aS'GO:0009165'
p127
asS'GO:0032386'
p128
(lp129
S'GO:0046907'
p130
aS'GO:0060341'
p131
aS'GO:0051049'
p132
asS'GO:0010543'
p133
(lp134
S'GO:0030168'
p135
aS'GO:0050865'
p136
aS'GO:0030193'
p137
asS'GO:0030594'
p138
(lp139
S'GO:0038023'
p140
asS'GO:0017171'
p141
(lp142
S'GO:0016787'
p143
asS'GO:0015849'
p144
(lp145
S'GO:0071702'
p146
asS'GO:2000649'
p147
(lp148
S'GO:0015081'
p149
aS'GO:0032412'
p150
aS'GO:1902305'
p151
asS'GO:0050832'
p152
(lp153
S'GO:0009620'
p154
aS'GO:0098542'
p155
asS'GO:0050830'
p156
(lp157
S'GO:0042742'
p158
asS'GO:0050776'
p159
(lp160
S'GO:0006955'
p161
aS'GO:0002682'
p162
aS'GO:0048583'
p163
asS'GO:0070527'
p164
(lp165
S'GO:0030168'
p166
aS'GO:0034109'
p167
asS'GO:0005184'
p168
(lp169
S'GO:0005179'
p170
asg46
(lp171
S'GO:0003824'
p172
asS'GO:0046483'
p173
(lp174
S'GO:0044237'
p175
asS'GO:0042325'
p176
(lp177
S'GO:0016310'
p178
aS'GO:0019220'
p179
asS'GO:0044358'
p180
(lp181
S'GO:0035738'
p182
asS'GO:0042326'
p183
(lp184
S'GO:0016310'
p185
aS'GO:0045936'
p186
aS'GO:0042325'
p187
asS'GO:0044217'
p188
(lp189
S'GO:0044215'
p190
aS'GO:0005575'
p191
asS'GO:0044216'
p192
(lp193
S'GO:0044217'
p194
asg97
(lp195
S'GO:0050896'
p196
asS'GO:0019538'
p197
(lp198
S'GO:0044238'
p199
aS'GO:0043170'
p200
aS'GO:1901564'
p201
asS'GO:1900619'
p202
(lp203
S'GO:0071704'
p204
asS'GO:0016810'
p205
(lp206
S'GO:0016787'
p207
asS'GO:0044218'
p208
(lp209
g192
aS'GO:0044279'
p210
asS'GO:0017186'
p211
(lp212
S'GO:0018199'
p213
asS'GO:0035896'
p214
(lp215
S'GO:0035895'
p216
aS'GO:0043306'
p217
asS'GO:0072556'
p218
(lp219
S'GO:0044218'
p220
asS'GO:0051781'
p221
(lp222
S'GO:0051301'
p223
aS'GO:0051302'
p224
aS'GO:0048522'
p225
asS'GO:0045822'
p226
(lp227
S'GO:0060047'
p228
aS'GO:0008016'
p229
aS'GO:1903523'
p230
asS'GO:0044424'
p231
(lp232
S'GO:0005622'
p233
aS'GO:0044464'
p234
asS'GO:0004623'
p235
(lp236
S'GO:0004620'
p237
aS'GO:0052689'
p238
asg237
(lp239
S'GO:0016298'
p240
asS'GO:0044421'
p241
(lp242
S'GO:0005576'
p243
aS'GO:0005575'
p244
asS'GO:0003993'
p245
(lp246
S'GO:0016791'
p247
asS'GO:0001716'
p248
(lp249
S'GO:0016641'
p250
asS'GO:0009896'
p251
(lp252
S'GO:0009056'
p253
aS'GO:0009893'
p254
aS'GO:0009894'
p255
asg255
(lp256
S'GO:0009056'
p257
aS'GO:0019222'
p258
asS'GO:0009892'
p259
(lp260
S'GO:0008152'
p261
aS'GO:0019222'
p262
aS'GO:0048519'
p263
asS'GO:0009893'
p264
(lp265
S'GO:0008152'
p266
aS'GO:0019222'
p267
aS'GO:0048518'
p268
asg150
(lp269
S'GO:0015075'
p270
aS'GO:0034765'
p271
aS'GO:0022898'
p272
asS'GO:0030828'
p273
(lp274
S'GO:0006182'
p275
aS'GO:0030804'
p276
aS'GO:0030826'
p277
aS'GO:0030825'
p278
aS'GO:1900373'
p279
asS'GO:0043900'
p280
(lp281
S'GO:0051704'
p282
aS'GO:0050789'
p283
asS'GO:0060300'
p284
(lp285
S'GO:0005125'
p286
aS'GO:1900120'
p287
asS'GO:0032418'
p288
(lp289
S'GO:0051640'
p290
asS'GO:0050778'
p291
(lp292
S'GO:0006955'
p293
ag159
aS'GO:0002684'
p294
aS'GO:0048584'
p295
asS'GO:1903391'
p296
(lp297
S'GO:0034332'
p298
aS'GO:0051128'
p299
asS'GO:0005488'
p300
(lp301
S'GO:0003674'
p302
asS'GO:1903393'
p303
(lp304
S'GO:0034332'
p305
aS'GO:0051130'
p306
aS'GO:1903391'
p307
asS'GO:1905030'
p308
(lp309
S'GO:0060078'
p310
aS'GO:0005244'
p311
asS'GO:0050789'
p312
(lp313
S'GO:0008150'
p314
aS'GO:0065007'
p315
asg114
(lp316
S'GO:0097159'
p317
aS'GO:1901363'
p318
asS'GO:0051656'
p319
(lp320
S'GO:0051234'
p321
aS'GO:0051640'
p322
asS'GO:0016603'
p323
(lp324
S'GO:0016755'
p325
asS'GO:0051346'
p326
(lp327
S'GO:0016787'
p328
aS'GO:0043086'
p329
aS'GO:0051336'
p330
asS'GO:0051345'
p331
(lp332
S'GO:0016787'
p333
aS'GO:0043085'
p334
aS'GO:0051336'
p335
asS'GO:0006887'
p336
(lp337
S'GO:0016192'
p338
aS'GO:0032940'
p339
asS'GO:0050866'
p340
(lp341
S'GO:0001775'
p342
aS'GO:0050865'
p343
aS'GO:0048523'
p344
asS'GO:0045981'
p345
(lp346
S'GO:0009117'
p347
aS'GO:0006140'
p348
aS'GO:0045935'
p349
aS'GO:0045937'
p350
asS'GO:0002687'
p351
(lp352
S'GO:0050900'
p353
aS'GO:0002684'
p354
aS'GO:0002685'
p355
aS'GO:0030335'
p356
asg294
(lp357
S'GO:0002376'
p358
aS'GO:0048518'
p359
aS'GO:0002682'
p360
asg355
(lp361
S'GO:0050900'
p362
aS'GO:0002682'
p363
aS'GO:0030334'
p364
asS'GO:0002682'
p365
(lp366
S'GO:0002376'
p367
aS'GO:0050789'
p368
asS'GO:0030054'
p369
(lp370
S'GO:0005575'
p371
asS'GO:0032414'
p372
(lp373
S'GO:0015075'
p374
aS'GO:0034767'
p375
aS'GO:0032411'
p376
aS'GO:0032412'
p377
asS'GO:1903307'
p378
(lp379
S'GO:0045055'
p380
aS'GO:0045921'
p381
aS'GO:1903305'
p382
asS'GO:1903305'
p383
(lp384
S'GO:0045055'
p385
aS'GO:0017157'
p386
asS'GO:1900116'
p387
(lp388
S'GO:1900115'
p389
aS'GO:0009968'
p390
asg389
(lp391
S'GO:0009966'
p392
asg143
(lp393
S'GO:0003824'
p394
asS'GO:0044087'
p395
(lp396
S'GO:0044085'
p397
aS'GO:0050789'
p398
asS'GO:0006629'
p399
(lp400
S'GO:0044238'
p401
aS'GO:0071704'
p402
asS'GO:0044559'
p403
(lp404
S'GO:0044560'
p405
asS'GO:0098609'
p406
(lp407
S'GO:0007155'
p408
asS'GO:0009889'
p409
(lp410
S'GO:0009058'
p411
aS'GO:0019222'
p412
asS'GO:0044493'
p413
(lp414
g92
asS'GO:0016788'
p415
(lp416
S'GO:0016787'
p417
asS'GO:0009260'
p418
(lp419
S'GO:0009165'
p420
aS'GO:0009259'
p421
aS'GO:0046390'
p422
asS'GO:0043412'
p423
(lp424
S'GO:0043170'
p425
asS'GO:1903522'
p426
(lp427
S'GO:0008015'
p428
aS'GO:0044057'
p429
asg230
(lp430
S'GO:0008015'
p431
aS'GO:0051241'
p432
aS'GO:1903522'
p433
asS'GO:0002526'
p434
(lp435
S'GO:0006954'
p436
asS'GO:0016070'
p437
(lp438
S'GO:0044260'
p439
aS'GO:0090304'
p440
asS'GO:0016779'
p441
(lp442
S'GO:0016772'
p443
asS'GO:0019855'
p444
(lp445
S'GO:0005262'
p446
aS'GO:0005246'
p447
aS'GO:0008200'
p448
asS'GO:0016773'
p449
(lp450
S'GO:0016772'
p451
asS'GO:0016772'
p452
(lp453
S'GO:0016740'
p454
asS'GO:0002353'
p455
(lp456
S'GO:0002254'
p457
asS'GO:0030574'
p458
(lp459
S'GO:0032963'
p460
aS'GO:0044243'
p461
aS'GO:0009056'
p462
asS'GO:0016817'
p463
(lp464
S'GO:0016787'
p465
asS'GO:0004531'
p466
(lp467
S'GO:0016889'
p468
asS'GO:0015075'
p469
(lp470
S'GO:0034220'
p471
aS'GO:0022891'
p472
asS'GO:0009966'
p473
(lp474
S'GO:0007165'
p475
aS'GO:0010646'
p476
aS'GO:0023051'
p477
aS'GO:0048583'
p478
asS'GO:0015077'
p479
(lp480
S'GO:0015672'
p481
aS'GO:0022890'
p482
asS'GO:0070290'
p483
(lp484
S'GO:0004620'
p485
aS'GO:0008081'
p486
asg54
(lp487
S'GO:0006753'
p488
aS'GO:0034654'
p489
aS'GO:0090407'
p490
asS'GO:2001259'
p491
(lp492
S'GO:0005261'
p493
aS'GO:1904064'
p494
aS'GO:0032414'
p495
aS'GO:2001257'
p496
asS'GO:2001257'
p497
(lp498
S'GO:0005261'
p499
aS'GO:1904062'
p500
aS'GO:0032412'
p501
asS'GO:0006753'
p502
(lp503
S'GO:0006796'
p504
aS'GO:0019637'
p505
aS'GO:0055086'
p506
asS'GO:0015079'
p507
(lp508
S'GO:0071805'
p509
aS'GO:0046873'
p510
ag479
asS'GO:0001871'
p511
(lp512
S'GO:0005488'
p513
asS'GO:0032553'
p514
(lp515
S'GO:0000166'
p516
aS'GO:0097367'
p517
asS'GO:0044085'
p518
(lp519
S'GO:0071840'
p520
asS'GO:0044554'
p521
(lp522
S'GO:0002027'
p523
ag102
asS'GO:0051128'
p524
(lp525
S'GO:0016043'
p526
aS'GO:0050794'
p527
asS'GO:0045987'
p528
(lp529
S'GO:0006939'
p530
aS'GO:0006940'
p531
aS'GO:0045933'
p532
asS'GO:0051174'
p533
(lp534
S'GO:0006793'
p535
aS'GO:0031323'
p536
asS'GO:1901566'
p537
(lp538
S'GO:1901564'
p539
aS'GO:1901576'
p540
asS'GO:0031224'
p541
(lp542
S'GO:0044425'
p543
asS'GO:0031225'
p544
(lp545
g541
asS'GO:1901681'
p546
(lp547
S'GO:0005488'
p548
asS'GO:0009653'
p549
(lp550
S'GO:0048856'
p551
aS'GO:0032502'
p552
asS'GO:0000287'
p553
(lp554
S'GO:0046872'
p555
asS'GO:0030810'
p556
(lp557
S'GO:0009165'
p558
aS'GO:0030808'
p559
aS'GO:0045981'
p560
aS'GO:0031328'
p561
asS'GO:0005509'
p562
(lp563
S'GO:0046872'
p564
asS'GO:0051817'
p565
(lp566
S'GO:0044403'
p567
aS'GO:0035821'
p568
asS'GO:0005507'
p569
(lp570
S'GO:0046914'
p571
asS'GO:0015672'
p572
(lp573
S'GO:0006812'
p574
asS'GO:0008284'
p575
(lp576
S'GO:0008283'
p577
aS'GO:0042127'
p578
aS'GO:0048522'
p579
asg472
(lp580
S'GO:0022857'
p581
aS'GO:0022892'
p582
asg14
(lp583
S'GO:0065008'
p584
asS'GO:0008283'
p585
(lp586
S'GO:0008150'
p587
asS'GO:0050877'
p588
(lp589
S'GO:0003008'
p590
asS'GO:0008324'
p591
(lp592
S'GO:0098655'
p593
aS'GO:0015075'
p594
asS'GO:0015929'
p595
(lp596
S'GO:0004553'
p597
asS'GO:0015927'
p598
(lp599
S'GO:0004553'
p600
asS'GO:0001558'
p601
(lp602
S'GO:0016049'
p603
aS'GO:0040008'
p604
aS'GO:0051128'
p605
asS'GO:0098542'
p606
(lp607
S'GO:0006952'
p608
aS'GO:0051707'
p609
asS'GO:0044259'
p610
(lp611
S'GO:0043170'
p612
aS'GO:0044236'
p613
asS'GO:0070008'
p614
(lp615
S'GO:0008236'
p616
aS'GO:0008238'
p617
asS'GO:0042268'
p618
(lp619
S'GO:0019835'
p620
aS'GO:0050794'
p621
asS'GO:0044255'
p622
(lp623
S'GO:0006629'
p624
aS'GO:0044237'
p625
asS'GO:0034329'
p626
(lp627
S'GO:0034330'
p628
aS'GO:0022607'
p629
asS'GO:0044468'
p630
(lp631
S'GO:0035738'
p632
asS'GO:0044469'
p633
(lp634
S'GO:0044468'
p635
aS'GO:0044483'
p636
asS'GO:0051818'
p637
(lp638
S'GO:0051817'
p639
aS'GO:0044364'
p640
asS'GO:0072511'
p641
(lp642
S'GO:0006812'
p643
asS'GO:0016853'
p644
(lp645
S'GO:0003824'
p646
asS'GO:0044464'
p647
(lp648
S'GO:0005623'
p649
aS'GO:0005575'
p650
asS'GO:0044465'
p651
(lp652
S'GO:0035821'
p653
aS'GO:0051930'
p654
asg101
(lp655
S'GO:0044498'
p656
asS'GO:0035737'
p657
(lp658
S'GO:0051705'
p659
asg632
(lp660
g657
asS'GO:0051920'
p661
(lp662
S'GO:0016209'
p663
aS'GO:0016684'
p664
asS'GO:0042127'
p665
(lp666
S'GO:0008283'
p667
aS'GO:0050794'
p668
asg381
(lp669
S'GO:0006887'
p670
aS'GO:0017157'
p671
aS'GO:1903532'
p672
asS'GO:0045926'
p673
(lp674
S'GO:0040007'
p675
aS'GO:0048519'
p676
aS'GO:0040008'
p677
asg131
(lp678
S'GO:0051641'
p679
aS'GO:0032879'
p680
asS'GO:0098916'
p681
(lp682
S'GO:0099537'
p683
asS'GO:0045919'
p684
(lp685
S'GO:0019835'
p686
ag618
aS'GO:0048522'
p687
asS'GO:0050865'
p688
(lp689
S'GO:0001775'
p690
aS'GO:0050794'
p691
asS'GO:0018108'
p692
(lp693
S'GO:0006468'
p694
ag105
asS'GO:2000021'
p695
(lp696
S'GO:0050801'
p697
aS'GO:0032844'
p698
asS'GO:0042592'
p699
(lp700
S'GO:0065008'
p701
asS'GO:0022407'
p702
(lp703
S'GO:0098609'
p704
aS'GO:0030155'
p705
asS'GO:0061041'
p706
(lp707
S'GO:0042060'
p708
aS'GO:1903034'
p709
asS'GO:0071944'
p710
(lp711
S'GO:0044464'
p712
asS'GO:0008217'
p713
(lp714
S'GO:0008015'
p715
aS'GO:0065008'
p716
asS'GO:0061045'
p717
(lp718
S'GO:0042060'
p719
aS'GO:0032102'
p720
aS'GO:0061041'
p721
aS'GO:1903035'
p722
asg64
(lp723
S'GO:0007268'
p724
asS'GO:0008219'
p725
(lp726
S'GO:0009987'
p727
asS'GO:0007275'
p728
(lp729
S'GO:0032501'
p730
aS'GO:0048856'
p731
asg223
(lp732
S'GO:0009987'
p733
asS'GO:0005615'
p734
(lp735
S'GO:0044421'
p736
asg654
(lp737
S'GO:0019233'
p738
aS'GO:0051931'
p739
asg739
(lp740
S'GO:0007600'
p741
aS'GO:0031644'
p742
asS'GO:0009636'
p743
(lp744
S'GO:0042221'
p745
asS'GO:0002697'
p746
(lp747
S'GO:0002252'
p748
ag365
asg224
(lp749
S'GO:0051301'
p750
aS'GO:0050794'
p751
asg119
(lp752
S'GO:0012501'
p753
aS'GO:0010941'
p754
asS'GO:0002696'
p755
(lp756
S'GO:0045321'
p757
aS'GO:0050867'
p758
aS'GO:0002684'
p759
aS'GO:0002694'
p760
asS'GO:0022408'
p761
(lp762
S'GO:0098609'
p763
aS'GO:0007162'
p764
aS'GO:0022407'
p765
asS'GO:0010181'
p766
(lp767
g514
aS'GO:0048037'
p768
aS'GO:0043168'
p769
asS'GO:0019210'
p770
(lp771
S'GO:0042326'
p772
aS'GO:0016301'
p773
aS'GO:0004857'
p774
aS'GO:0019207'
p775
asg694
(lp776
S'GO:0016310'
p777
aS'GO:0006464'
p778
asS'GO:0006469'
p779
(lp780
S'GO:0004672'
p781
aS'GO:0045859'
p782
aS'GO:0033673'
p783
aS'GO:0001933'
p784
asS'GO:0019216'
p785
(lp786
S'GO:0006629'
p787
aS'GO:0080090'
p788
asS'GO:0019219'
p789
(lp790
S'GO:0006139'
p791
aS'GO:0031323'
p792
aS'GO:0051171'
p793
aS'GO:0080090'
p794
asS'GO:0019887'
p795
(lp796
S'GO:0045859'
p797
aS'GO:0004672'
p798
aS'GO:0019207'
p799
asS'GO:0045087'
p800
(lp801
S'GO:0006955'
p802
aS'GO:0006952'
p803
asS'GO:0006461'
p804
(lp805
S'GO:0070271'
p806
aS'GO:0071822'
p807
aS'GO:0065003'
p808
asS'GO:0006464'
p809
(lp810
S'GO:0044267'
p811
aS'GO:0036211'
p812
asS'GO:0000272'
p813
(lp814
S'GO:0005976'
p815
aS'GO:0009057'
p816
aS'GO:0016052'
p817
asS'GO:0010959'
p818
(lp819
S'GO:0030001'
p820
aS'GO:0043269'
p821
asg782
(lp822
S'GO:0004672'
p823
aS'GO:0043549'
p824
aS'GO:0001932'
p825
asg86
(lp826
S'GO:0009987'
p827
aS'GO:0051704'
p828
asS'GO:0090257'
p829
(lp830
S'GO:0003012'
p831
aS'GO:0044057'
p832
asS'GO:0010951'
p833
(lp834
S'GO:0004175'
p835
aS'GO:0010466'
p836
aS'GO:0052548'
p837
asS'GO:0044004'
p838
(lp839
S'GO:0044003'
p840
ag637
asS'GO:0010952'
p841
(lp842
S'GO:0008233'
p843
aS'GO:0045862'
p844
aS'GO:0052547'
p845
ag331
asg840
(lp846
S'GO:0051701'
p847
ag565
asS'GO:0040011'
p848
(lp849
S'GO:0008150'
p850
asg110
(lp851
S'GO:0002027'
p852
ag226
asS'GO:0040012'
p853
(lp854
S'GO:0040011'
p855
aS'GO:0050789'
p856
asS'GO:0044164'
p857
(lp858
g35
asS'GO:0016638'
p859
(lp860
S'GO:0016491'
p861
asS'GO:0005044'
p862
(lp863
S'GO:0038024'
p864
asg731
(lp865
S'GO:0032502'
p866
asS'GO:0050994'
p867
(lp868
S'GO:0016042'
p869
aS'GO:0009894'
p870
ag785
asS'GO:0019693'
p871
(lp872
S'GO:0006796'
p873
aS'GO:0019637'
p874
aS'GO:1901135'
p875
asS'GO:0050996'
p876
(lp877
S'GO:0016042'
p878
ag251
ag867
aS'GO:0045834'
p879
asS'GO:0005764'
p880
(lp881
S'GO:0000323'
p882
asg581
(lp883
S'GO:0055085'
p884
aS'GO:0005215'
p885
asS'GO:0070011'
p886
(lp887
S'GO:0008233'
p888
asS'GO:0006793'
p889
(lp890
S'GO:0044237'
p891
asS'GO:0006140'
p892
(lp893
S'GO:0009117'
p894
ag789
aS'GO:0019220'
p895
asS'GO:0051801'
p896
(lp897
S'GO:0051715'
p898
aS'GO:0051883'
p899
asS'GO:0048523'
p900
(lp901
S'GO:0009987'
p902
aS'GO:0048519'
p903
aS'GO:0050794'
p904
asS'GO:0048522'
p905
(lp906
S'GO:0009987'
p907
aS'GO:0048518'
p908
aS'GO:0050794'
p909
asS'GO:0005267'
p910
(lp911
S'GO:0071805'
p912
aS'GO:0005261'
p913
ag507
asS'GO:0042133'
p914
(lp915
S'GO:0044237'
p916
aS'GO:0001505'
p917
asg913
(lp918
S'GO:0005216'
p919
ag591
asS'GO:0042135'
p920
(lp921
S'GO:0042133'
p922
aS'GO:0044248'
p923
asS'GO:0034111'
p924
(lp925
S'GO:0034109'
p926
ag761
aS'GO:0034110'
p927
asg446
(lp928
S'GO:0070588'
p929
aS'GO:0005261'
p930
aS'GO:0015085'
p931
asS'GO:1901890'
p932
(lp933
S'GO:0034329'
p934
aS'GO:0044089'
p935
aS'GO:0051130'
p936
aS'GO:1901888'
p937
asS'GO:0007610'
p938
(lp939
S'GO:0008150'
p940
asS'GO:0007160'
p941
(lp942
S'GO:0031589'
p943
asg764
(lp944
S'GO:0007155'
p945
aS'GO:0030155'
p946
aS'GO:0048523'
p947
asS'GO:0003013'
p948
(lp949
S'GO:0003008'
p950
asS'GO:0003014'
p951
(lp952
S'GO:0003008'
p953
asS'GO:0007165'
p954
(lp955
g88
aS'GO:0023052'
p956
aS'GO:0007154'
p957
aS'GO:0050794'
p958
aS'GO:0009987'
p959
asS'GO:0035809'
p960
(lp961
g951
aS'GO:0050878'
p962
asS'GO:0003018'
p963
(lp964
S'GO:0003013'
p965
asg720
(lp966
S'GO:0009605'
p967
aS'GO:0032101'
p968
aS'GO:0048585'
p969
asS'GO:0031347'
p970
(lp971
S'GO:0006952'
p972
aS'GO:0080134'
p973
asS'GO:0005549'
p974
(lp975
S'GO:0005488'
p976
asS'GO:0051098'
p977
(lp978
S'GO:0005488'
p979
aS'GO:0065009'
p980
asS'GO:0045785'
p981
(lp982
S'GO:0007155'
p983
aS'GO:0030155'
p984
aS'GO:0048518'
p985
asS'GO:0016021'
p986
(lp987
S'GO:0031224'
p988
asS'GO:0002263'
p989
(lp990
S'GO:0006955'
p991
aS'GO:0002252'
p992
aS'GO:0001775'
p993
asS'GO:0052652'
p994
(lp995
S'GO:0006164'
p996
ag124
asS'GO:0098869'
p997
(lp998
S'GO:1990748'
p999
asS'GO:0016740'
p1000
(lp1001
S'GO:0003824'
p1002
asS'GO:0016741'
p1003
(lp1004
S'GO:0016740'
p1005
asS'GO:0016746'
p1006
(lp1007
g1000
asS'GO:0044093'
p1008
(lp1009
S'GO:0003674'
p1010
aS'GO:0065009'
p1011
asS'GO:0044092'
p1012
(lp1013
S'GO:0003674'
p1014
aS'GO:0065009'
p1015
asS'GO:0001906'
p1016
(lp1017
S'GO:0008150'
p1018
asS'GO:0033036'
p1019
(lp1020
S'GO:0051179'
p1021
asS'GO:0004222'
p1022
(lp1023
S'GO:0004175'
p1024
aS'GO:0008237'
p1025
asS'GO:0006935'
p1026
(lp1027
S'GO:0042221'
p1028
aS'GO:0042330'
p1029
asS'GO:0051051'
p1030
(lp1031
S'GO:0006810'
p1032
aS'GO:0051049'
p1033
aS'GO:0048519'
p1034
asg26
(lp1035
S'GO:0006810'
p1036
aS'GO:0051049'
p1037
aS'GO:0048518'
p1038
asg530
(lp1039
S'GO:0006936'
p1040
asS'GO:0016160'
p1041
(lp1042
S'GO:0004553'
p1043
asS'GO:0042327'
p1044
(lp1045
S'GO:0016310'
p1046
aS'GO:0045937'
p1047
aS'GO:0042325'
p1048
asS'GO:1902653'
p1049
(lp1050
S'GO:0046165'
p1051
aS'GO:1902652'
p1052
asS'GO:1902652'
p1053
(lp1054
S'GO:0006066'
p1055
asS'GO:0001515'
p1056
(lp1057
S'GO:0005102'
p1058
asS'GO:0044359'
p1059
(lp1060
S'GO:0035821'
p1061
asS'GO:0016894'
p1062
(lp1063
S'GO:0004519'
p1064
asS'GO:0035810'
p1065
(lp1066
g960
asg98
(lp1067
S'GO:0050896'
p1068
asg847
(lp1069
S'GO:0044403'
p1070
aS'GO:0044419'
p1071
asS'GO:0051707'
p1072
(lp1073
g95
aS'GO:0051704'
p1074
asS'GO:0010033'
p1075
(lp1076
S'GO:0042221'
p1077
asg659
(lp1078
S'GO:0051704'
p1079
ag938
asg1079
(lp1080
S'GO:0008150'
p1081
asS'GO:0044215'
p1082
(lp1083
S'GO:0005575'
p1084
asg935
(lp1085
S'GO:0044085'
p1086
aS'GO:0044087'
p1087
aS'GO:0048518'
p1088
asS'GO:0005829'
p1089
(lp1090
S'GO:0005737'
p1091
aS'GO:0044444'
p1092
asS'GO:0039694'
p1093
(lp1094
S'GO:0019079'
p1095
asS'GO:0090109'
p1096
(lp1097
S'GO:0007044'
p1098
aS'GO:1901888'
p1099
asS'GO:1900371'
p1100
(lp1101
S'GO:0006164'
p1102
aS'GO:1900542'
p1103
aS'GO:0030808'
p1104
asS'GO:0050731'
p1105
(lp1106
g692
aS'GO:0050730'
p1107
aS'GO:0001934'
p1108
asg240
(lp1109
g415
asS'GO:0099600'
p1110
(lp1111
S'GO:0004872'
p1112
asS'GO:0099601'
p1113
(lp1114
S'GO:0030594'
p1115
aS'GO:0010469'
p1116
asS'GO:0016811'
p1117
(lp1118
g205
asS'GO:0004035'
p1119
(lp1120
S'GO:0016791'
p1121
asS'GO:0005185'
p1122
(lp1123
S'GO:0005184'
p1124
asg672
(lp1125
S'GO:0032940'
p1126
aS'GO:0048522'
p1127
ag22
aS'GO:1903530'
p1128
asS'GO:0008253'
p1129
(lp1130
S'GO:0008252'
p1131
asg1131
(lp1132
S'GO:0016791'
p1133
asS'GO:0046717'
p1134
(lp1135
S'GO:0046903'
p1136
asS'GO:0045321'
p1137
(lp1138
S'GO:0001775'
p1139
aS'GO:0002376'
p1140
asS'GO:0006807'
p1141
(lp1142
S'GO:0008152'
p1143
asS'GO:0035792'
p1144
(lp1145
g208
asS'GO:0050829'
p1146
(lp1147
S'GO:0042742'
p1148
asS'GO:0042311'
p1149
(lp1150
S'GO:0097755'
p1151
asS'GO:0046068'
p1152
(lp1153
S'GO:0009187'
p1154
aS'GO:0009150'
p1155
asS'GO:0098740'
p1156
(lp1157
S'GO:0007155'
p1158
aS'GO:0051704'
p1159
asS'GO:0044267'
p1160
(lp1161
S'GO:0019538'
p1162
aS'GO:0044260'
p1163
asg461
(lp1164
S'GO:0044236'
p1165
asS'GO:1902307'
p1166
(lp1167
S'GO:0035725'
p1168
aS'GO:1904064'
p1169
aS'GO:0010765'
p1170
aS'GO:1902305'
p1171
asS'GO:0008083'
p1172
(lp1173
S'GO:0005102'
p1174
asS'GO:0046914'
p1175
(lp1176
S'GO:0046872'
p1177
asg486
(lp1178
S'GO:0042578'
p1179
asS'GO:0043300'
p1180
(lp1181
S'GO:0043299'
p1182
aS'GO:0002697'
p1183
ag383
asS'GO:0097164'
p1184
(lp1185
S'GO:0006807'
p1186
asS'GO:0001568'
p1187
(lp1188
S'GO:0001944'
p1189
aS'GO:0048856'
p1190
asS'GO:0043303'
p1191
(lp1192
S'GO:0002448'
p1193
aS'GO:0043299'
p1194
aS'GO:0002279'
p1195
ag288
aS'GO:0046907'
p1196
ag319
asS'GO:0043304'
p1197
(lp1198
S'GO:0043303'
p1199
aS'GO:0043300'
p1200
aS'GO:0002886'
p1201
aS'GO:0033006'
p1202
ag128
asS'GO:0043306'
p1203
(lp1204
S'GO:0043303'
p1205
aS'GO:0002888'
p1206
aS'GO:0043302'
p1207
ag1197
aS'GO:0033008'
p1208
ag66
asg806
(lp1209
S'GO:0044085'
p1210
asS'GO:0044564'
p1211
(lp1212
S'GO:0044562'
p1213
asS'GO:0044532'
p1214
(lp1215
g116
aS'GO:0044531'
p1216
asS'GO:0004630'
p1217
(lp1218
S'GO:0008081'
p1219
aS'GO:0004620'
p1220
asg1216
(lp1221
S'GO:0043067'
p1222
aS'GO:0035821'
p1223
asS'GO:0044536'
p1224
(lp1225
S'GO:0044483'
p1226
aS'GO:0061754'
p1227
asS'GO:0044537'
p1228
(lp1229
S'GO:0065008'
p1230
asS'GO:0004551'
p1231
(lp1232
S'GO:0016462'
p1233
asS'GO:0035529'
p1234
(lp1235
g1231
asg65
(lp1236
S'GO:0008291'
p1237
ag920
aS'GO:1901575'
p1238
asS'GO:0050790'
p1239
(lp1240
S'GO:0003824'
p1241
aS'GO:0065009'
p1242
asS'GO:0019318'
p1243
(lp1244
S'GO:0005996'
p1245
asS'GO:0004527'
p1246
(lp1247
S'GO:0004518'
p1248
asS'GO:0050794'
p1249
(lp1250
S'GO:0009987'
p1251
aS'GO:0050789'
p1252
asg1206
(lp1253
S'GO:0002444'
p1254
ag47
aS'GO:0002886'
p1255
asg1208
(lp1256
S'GO:0002279'
p1257
aS'GO:0050778'
p1258
aS'GO:0033005'
p1259
aS'GO:0033006'
p1260
asS'GO:0003948'
p1261
(lp1262
g1117
asS'GO:0051239'
p1263
(lp1264
S'GO:0032501'
p1265
aS'GO:0050789'
p1266
asg543
(lp1267
S'GO:0016020'
p1268
aS'GO:0005575'
p1269
asg310
(lp1270
S'GO:0042391'
p1271
asS'GO:0051234'
p1272
(lp1273
S'GO:0051179'
p1274
asg490
(lp1275
S'GO:1901576'
p1276
aS'GO:0019637'
p1277
asg1255
(lp1278
S'GO:0002444'
p1279
aS'GO:0002703'
p1280
asS'GO:0051336'
p1281
(lp1282
S'GO:0016787'
p1283
ag1239
asS'GO:0022890'
p1284
(lp1285
S'GO:0008324'
p1286
asg582
(lp1287
S'GO:0005215'
p1288
asS'GO:0006897'
p1289
(lp1290
S'GO:0016192'
p1291
asg429
(lp1292
S'GO:0003008'
p1293
aS'GO:0051239'
p1294
asg272
(lp1295
S'GO:0022857'
p1296
aS'GO:0032409'
p1297
aS'GO:0034762'
p1298
asS'GO:0050896'
p1299
(lp1300
S'GO:0008150'
p1301
asS'GO:0006898'
p1302
(lp1303
g1289
asg422
(lp1304
S'GO:0019693'
p1305
aS'GO:0090407'
p1306
aS'GO:1901137'
p1307
asS'GO:0009058'
p1308
(lp1309
S'GO:0008152'
p1310
asS'GO:0051338'
p1311
(lp1312
S'GO:0016740'
p1313
aS'GO:0050790'
p1314
asS'GO:0003990'
p1315
(lp1316
S'GO:0004104'
p1317
asS'GO:0002694'
p1318
(lp1319
S'GO:0045321'
p1320
ag688
aS'GO:0002682'
p1321
asS'GO:0017080'
p1322
(lp1323
S'GO:0005272'
p1324
aS'GO:0016247'
p1325
asS'GO:0015267'
p1326
(lp1327
S'GO:0022803'
p1328
asS'GO:2000145'
p1329
(lp1330
S'GO:0048870'
p1331
aS'GO:0051270'
p1332
aS'GO:0040012'
p1333
asS'GO:2000147'
p1334
(lp1335
S'GO:0048870'
p1336
aS'GO:0051272'
p1337
aS'GO:0040017'
p1338
aS'GO:2000145'
p1339
asS'GO:0046983'
p1340
(lp1341
S'GO:0005515'
p1342
asS'GO:0042832'
p1343
(lp1344
S'GO:0001562'
p1345
aS'GO:0098542'
p1346
asg50
(lp1347
S'GO:0002252'
p1348
aS'GO:0002684'
p1349
aS'GO:0002697'
p1350
asS'GO:0010562'
p1351
(lp1352
S'GO:0006793'
p1353
aS'GO:0031325'
p1354
aS'GO:0051174'
p1355
asS'GO:0001907'
p1356
(lp1357
g838
aS'GO:0051883'
p1358
asS'GO:0051241'
p1359
(lp1360
S'GO:0032501'
p1361
aS'GO:0051239'
p1362
aS'GO:0048519'
p1363
asg1133
(lp1364
S'GO:0016311'
p1365
aS'GO:0042578'
p1366
asS'GO:0032103'
p1367
(lp1368
S'GO:0009605'
p1369
aS'GO:0032101'
p1370
aS'GO:0048584'
p1371
asS'GO:0032101'
p1372
(lp1373
S'GO:0009605'
p1374
aS'GO:0048583'
p1375
asg1189
(lp1376
S'GO:0072358'
p1377
aS'GO:0048731'
p1378
asS'GO:0051173'
p1379
(lp1380
S'GO:0006807'
p1381
aS'GO:0009893'
p1382
aS'GO:0051171'
p1383
asS'GO:0009311'
p1384
(lp1385
S'GO:0005975'
p1386
asS'GO:0016798'
p1387
(lp1388
S'GO:0016787'
p1389
asS'GO:0004520'
p1390
(lp1391
S'GO:0004519'
p1392
aS'GO:0004536'
p1393
asS'GO:0007045'
p1394
(lp1395
S'GO:0007044'
p1396
aS'GO:0034333'
p1397
asg1396
(lp1398
g626
asS'GO:0004859'
p1399
(lp1400
S'GO:0004620'
p1401
aS'GO:0055102'
p1402
asS'GO:1903530'
p1403
(lp1404
S'GO:0032940'
p1405
ag18
aS'GO:0050794'
p1406
asS'GO:0070887'
p1407
(lp1408
S'GO:0042221'
p1409
aS'GO:0051716'
p1410
asg460
(lp1411
g610
asS'GO:0004857'
p1412
(lp1413
S'GO:0043086'
p1414
aS'GO:0003824'
p1415
aS'GO:0030234'
p1416
asS'GO:0009259'
p1417
(lp1418
S'GO:0009117'
p1419
ag871
asS'GO:0007049'
p1420
(lp1421
S'GO:0009987'
p1422
asg861
(lp1423
S'GO:0055114'
p1424
aS'GO:0003824'
p1425
asS'GO:0051248'
p1426
(lp1427
S'GO:0019538'
p1428
aS'GO:0051246'
p1429
aS'GO:0010605'
p1430
aS'GO:0051172'
p1431
asS'GO:0030548'
p1432
(lp1433
S'GO:0015464'
p1434
aS'GO:0099602'
p1435
asS'GO:0004528'
p1436
(lp1437
g1246
aS'GO:0008081'
p1438
asS'GO:0071804'
p1439
(lp1440
S'GO:0006813'
p1441
aS'GO:0009987'
p1442
asg912
(lp1443
g1439
aS'GO:0098662'
p1444
asS'GO:0030545'
p1445
(lp1446
S'GO:0010469'
p1447
aS'GO:0004872'
p1448
aS'GO:0098772'
p1449
asS'GO:0051240'
p1450
(lp1451
S'GO:0032501'
p1452
aS'GO:0051239'
p1453
aS'GO:0048518'
p1454
asS'GO:0030547'
p1455
(lp1456
S'GO:2000272'
p1457
aS'GO:0004872'
p1458
ag1445
asS'GO:0051246'
p1459
(lp1460
S'GO:0019538'
p1461
aS'GO:0080090'
p1462
aS'GO:0060255'
p1463
aS'GO:0051171'
p1464
asS'GO:0051247'
p1465
(lp1466
S'GO:0019538'
p1467
aS'GO:0051246'
p1468
aS'GO:0010604'
p1469
ag1379
asg816
(lp1470
S'GO:0043170'
p1471
aS'GO:1901575'
p1472
asg523
(lp1473
S'GO:0065008'
p1474
aS'GO:0008016'
p1475
asg1297
(lp1476
S'GO:0005215'
p1477
aS'GO:0065009'
p1478
aS'GO:0051049'
p1479
asS'GO:0031399'
p1480
(lp1481
S'GO:0006464'
p1482
aS'GO:0032268'
p1483
asS'GO:0046942'
p1484
(lp1485
S'GO:0015711'
p1486
ag144
asg709
(lp1487
S'GO:0009611'
p1488
aS'GO:0080134'
p1489
asg722
(lp1490
S'GO:0009611'
p1491
aS'GO:0048585'
p1492
aS'GO:1903034'
p1493
asS'GO:0002028'
p1494
(lp1495
S'GO:0006814'
p1496
ag818
asg1170
(lp1497
S'GO:0006814'
p1498
aS'GO:0002028'
p1499
aS'GO:0043270'
p1500
asS'GO:0016126'
p1501
(lp1502
S'GO:0006694'
p1503
aS'GO:0016125'
p1504
aS'GO:1901617'
p1505
asS'GO:0016125'
p1506
(lp1507
S'GO:0008202'
p1508
aS'GO:1901615'
p1509
asS'GO:0044398'
p1510
(lp1511
S'GO:0035738'
p1512
asg1337
(lp1513
S'GO:0006928'
p1514
aS'GO:0051270'
p1515
aS'GO:0048522'
p1516
asg885
(lp1517
S'GO:0006810'
p1518
aS'GO:0003674'
p1519
asS'GO:0005216'
p1520
(lp1521
g469
aS'GO:0022838'
p1522
asS'GO:0009725'
p1523
(lp1524
S'GO:0009719'
p1525
aS'GO:0010033'
p1526
asS'GO:0043270'
p1527
(lp1528
S'GO:0006811'
p1529
aS'GO:0043269'
p1530
aS'GO:0051050'
p1531
asS'GO:0043271'
p1532
(lp1533
S'GO:0006811'
p1534
aS'GO:0043269'
p1535
ag1030
asg1332
(lp1536
S'GO:0006928'
p1537
aS'GO:0032879'
p1538
aS'GO:0050794'
p1539
asS'GO:0009405'
p1540
(lp1541
S'GO:0044419'
p1542
asS'GO:0009891'
p1543
(lp1544
S'GO:0009058'
p1545
aS'GO:0009889'
p1546
aS'GO:0009893'
p1547
asS'GO:0003254'
p1548
(lp1549
S'GO:0051899'
p1550
ag695
aS'GO:0050794'
p1551
aS'GO:0042391'
p1552
asS'GO:0070838'
p1553
(lp1554
g641
aS'GO:0030001'
p1555
asS'GO:0040017'
p1556
(lp1557
S'GO:0040011'
p1558
aS'GO:0040012'
p1559
aS'GO:0048518'
p1560
asS'GO:0008201'
p1561
(lp1562
S'GO:0005539'
p1563
ag546
aS'GO:0043168'
p1564
asg1307
(lp1565
S'GO:1901135'
p1566
aS'GO:1901576'
p1567
asg276
(lp1568
S'GO:0009190'
p1569
aS'GO:0030801'
p1570
aS'GO:0030802'
p1571
ag556
asg1169
(lp1572
S'GO:0098655'
p1573
aS'GO:0034767'
p1574
aS'GO:1904062'
p1575
asS'GO:0097746'
p1576
(lp1577
S'GO:0035296'
p1578
aS'GO:0050880'
p1579
asS'GO:1904062'
p1580
(lp1581
S'GO:0098655'
p1582
aS'GO:0034765'
p1583
asg1571
(lp1584
S'GO:0009190'
p1585
aS'GO:0030799'
p1586
aS'GO:0030808'
p1587
asS'GO:0071715'
p1588
(lp1589
g1484
aS'GO:1901571'
p1590
asS'GO:1903036'
p1591
(lp1592
S'GO:0009611'
p1593
aS'GO:0048584'
p1594
aS'GO:1903034'
p1595
asS'GO:0005515'
p1596
(lp1597
S'GO:0005488'
p1598
asS'GO:0048731'
p1599
(lp1600
g728
aS'GO:0048856'
p1601
asS'GO:0005102'
p1602
(lp1603
g1596
asS'GO:0035806'
p1604
(lp1605
S'GO:0030193'
p1606
aS'GO:0035821'
p1607
asS'GO:0035807'
p1608
(lp1609
S'GO:0030194'
p1610
ag1604
asS'GO:0004177'
p1611
(lp1612
S'GO:0008238'
p1613
asg11
(lp1614
S'GO:0070011'
p1615
asg1587
(lp1616
S'GO:0009165'
p1617
aS'GO:0006140'
p1618
aS'GO:0031326'
p1619
asg1207
(lp1620
S'GO:0043299'
p1621
ag1180
aS'GO:0002699'
p1622
ag378
asg1397
(lp1623
S'GO:0034329'
p1624
aS'GO:0034332'
p1625
asg1625
(lp1626
g15
asg758
(lp1627
S'GO:0001775'
p1628
aS'GO:0050865'
p1629
aS'GO:0048522'
p1630
asg628
(lp1631
S'GO:0016043'
p1632
asS'GO:0030247'
p1633
(lp1634
S'GO:0030246'
p1635
ag511
asS'GO:0030246'
p1636
(lp1637
S'GO:0005488'
p1638
asg1227
(lp1639
g1228
asS'GO:0008047'
p1640
(lp1641
S'GO:0043085'
p1642
aS'GO:0003824'
p1643
aS'GO:0030234'
p1644
asS'GO:0048041'
p1645
(lp1646
g941
ag1394
asS'GO:0006725'
p1647
(lp1648
S'GO:0044237'
p1649
asS'GO:0072521'
p1650
(lp1651
S'GO:1901564'
p1652
aS'GO:0034641'
p1653
aS'GO:0046483'
p1654
aS'GO:0006725'
p1655
aS'GO:1901360'
p1656
asS'GO:0072522'
p1657
(lp1658
g537
aS'GO:0044271'
p1659
aS'GO:0072521'
p1660
aS'GO:0018130'
p1661
aS'GO:0019438'
p1662
aS'GO:1901362'
p1663
asS'GO:0001525'
p1664
(lp1665
S'GO:0048514'
p1666
aS'GO:0048646'
p1667
asS'GO:1903963'
p1668
(lp1669
S'GO:0015909'
p1670
aS'GO:0071715'
p1671
asg1055
(lp1672
S'GO:0044281'
p1673
aS'GO:1901615'
p1674
asS'GO:0000771'
p1675
(lp1676
S'GO:0000746'
p1677
aS'GO:0098610'
p1678
asg1677
(lp1679
S'GO:0044764'
p1680
asS'GO:0097756'
p1681
(lp1682
S'GO:0097746'
p1683
asg1151
(lp1684
g1576
asS'GO:0044477'
p1685
(lp1686
S'GO:0044365'
p1687
asS'GO:0019870'
p1688
(lp1689
g910
aS'GO:0008200'
p1690
aS'GO:0015459'
p1691
asS'GO:1901360'
p1692
(lp1693
S'GO:0071704'
p1694
asS'GO:0044474'
p1695
(lp1696
S'GO:0044473'
p1697
asg1697
(lp1698
S'GO:0044472'
p1699
asS'GO:0006796'
p1700
(lp1701
S'GO:0006793'
p1702
asS'GO:0004185'
p1703
(lp1704
S'GO:0004180'
p1705
ag614
asS'GO:0044476'
p1706
(lp1707
S'GO:0044474'
p1708
asS'GO:0035725'
p1709
(lp1710
S'GO:0098662'
p1711
aS'GO:0006814'
p1712
asS'GO:0001936'
p1713
(lp1714
S'GO:0001935'
p1715
aS'GO:0050678'
p1716
asS'GO:0016248'
p1717
(lp1718
S'GO:0015267'
p1719
aS'GO:0016247'
p1720
asg1720
(lp1721
S'GO:0015267'
p1722
aS'GO:0098772'
p1723
asS'GO:0004771'
p1724
(lp1725
S'GO:0016298'
p1726
aS'GO:0052689'
p1727
asg532
(lp1728
S'GO:0006936'
p1729
aS'GO:0006937'
p1730
aS'GO:0051240'
p1731
asS'GO:0045932'
p1732
(lp1733
S'GO:0006936'
p1734
aS'GO:0006937'
p1735
aS'GO:0051241'
p1736
asg349
(lp1737
S'GO:0006139'
p1738
aS'GO:0019219'
p1739
aS'GO:0031325'
p1740
aS'GO:0051173'
p1741
asg1047
(lp1742
S'GO:0006796'
p1743
aS'GO:0019220'
p1744
ag1351
asg845
(lp1745
S'GO:0008233'
p1746
ag1281
aS'GO:0030162'
p1747
asg837
(lp1748
S'GO:0004175'
p1749
aS'GO:0052547'
p1750
asS'GO:0010811'
p1751
(lp1752
S'GO:0031589'
p1753
aS'GO:0010810'
p1754
ag981
asS'GO:0061135'
p1755
(lp1756
S'GO:0004175'
p1757
aS'GO:0052548'
p1758
aS'GO:0061134'
p1759
asS'GO:0061134'
p1760
(lp1761
S'GO:0008233'
p1762
aS'GO:0052547'
p1763
aS'GO:0030234'
p1764
asS'GO:0044475'
p1765
(lp1766
g1695
asg37
(lp1767
S'GO:0033646'
p1768
asg724
(lp1769
g681
asS'GO:0007267'
p1770
(lp1771
S'GO:0007154'
p1772
aS'GO:0023052'
p1773
asg1578
(lp1774
S'GO:0035150'
p1775
asS'GO:0008613'
p1776
(lp1777
S'GO:0005179'
p1778
asS'GO:0008610'
p1779
(lp1780
S'GO:0006629'
p1781
aS'GO:1901576'
p1782
asg376
(lp1783
S'GO:0005215'
p1784
aS'GO:0044093'
p1785
aS'GO:0051050'
p1786
aS'GO:0032409'
p1787
asg199
(lp1788
S'GO:0008152'
p1789
asg1317
(lp1790
S'GO:0052689'
p1791
asS'GO:0005975'
p1792
(lp1793
S'GO:0044238'
p1794
aS'GO:0071704'
p1795
asg1358
(lp1796
S'GO:0031640'
p1797
aS'GO:0051818'
p1798
asg154
(lp1799
S'GO:0051707'
p1800
asg625
(lp1801
S'GO:0008152'
p1802
aS'GO:0009987'
p1803
asg613
(lp1804
S'GO:0008152'
p1805
aS'GO:0032501'
p1806
asg1194
(lp1807
S'GO:0002252'
p1808
aS'GO:0045055'
p1809
asS'GO:0006259'
p1810
(lp1811
S'GO:0044260'
p1812
aS'GO:0090304'
p1813
asg1070
(lp1814
S'GO:0044419'
p1815
asg1237
(lp1816
g914
ag1184
ag202
asS'GO:0051348'
p1817
(lp1818
S'GO:0016740'
p1819
aS'GO:0043086'
p1820
aS'GO:0051338'
p1821
asg179
(lp1822
S'GO:0006796'
p1823
ag533
asS'GO:0019222'
p1824
(lp1825
S'GO:0008152'
p1826
ag312
asg969
(lp1827
S'GO:0050896'
p1828
aS'GO:0048519'
p1829
aS'GO:0048583'
p1830
asg1594
(lp1831
S'GO:0050896'
p1832
aS'GO:0048518'
p1833
aS'GO:0048583'
p1834
asS'GO:0048583'
p1835
(lp1836
S'GO:0050896'
p1837
aS'GO:0050789'
p1838
asS'GO:0019229'
p1839
(lp1840
S'GO:0042310'
p1841
aS'GO:1903522'
p1842
aS'GO:0097746'
p1843
asS'GO:0019838'
p1844
(lp1845
S'GO:0005515'
p1846
asS'GO:0060089'
p1847
(lp1848
S'GO:0003674'
p1849
asS'GO:0072359'
p1850
(lp1851
g1599
asg1377
(lp1852
g1850
aS'GO:0048731'
p1853
asS'GO:0090066'
p1854
(lp1855
S'GO:0065008'
p1856
asS'GO:1901362'
p1857
(lp1858
S'GO:1901360'
p1859
aS'GO:1901576'
p1860
asg318
(lp1861
S'GO:0005488'
p1862
asS'GO:0071840'
p1863
(lp1864
S'GO:0008150'
p1865
asS'GO:0050688'
p1866
(lp1867
S'GO:0051607'
p1868
ag746
aS'GO:0002831'
p1869
ag970
aS'GO:0032101'
p1870
ag280
asg931
(lp1871
S'GO:0070588'
p1872
aS'GO:0046873'
p1873
aS'GO:0072509'
p1874
asS'GO:0007218'
p1875
(lp1876
S'GO:0007186'
p1877
asS'GO:0015081'
p1878
(lp1879
S'GO:0035725'
p1880
aS'GO:0046873'
p1881
aS'GO:0015077'
p1882
asg390
(lp1883
S'GO:0007165'
p1884
aS'GO:0009966'
p1885
aS'GO:0010648'
p1886
aS'GO:0023057'
p1887
aS'GO:0048585'
p1888
asS'GO:0005773'
p1889
(lp1890
S'GO:0044444'
p1891
aS'GO:0043231'
p1892
asS'GO:0048869'
p1893
(lp1894
S'GO:0009987'
p1895
aS'GO:0032502'
p1896
asS'GO:0034110'
p1897
(lp1898
S'GO:0034109'
p1899
ag702
asS'GO:0043656'
p1900
(lp1901
S'GO:0033643'
p1902
asS'GO:0043657'
p1903
(lp1904
S'GO:0018995'
p1905
aS'GO:0044216'
p1906
asS'GO:0043655'
p1907
(lp1908
S'GO:0018995'
p1909
ag241
ag188
asS'GO:0019058'
p1910
(lp1911
S'GO:0016032'
p1912
asg1666
(lp1913
g1187
ag549
asg1508
(lp1914
S'GO:0006629'
p1915
aS'GO:1901360'
p1916
asS'GO:0004465'
p1917
(lp1918
S'GO:0004806'
p1919
asg268
(lp1920
S'GO:0008150'
p1921
aS'GO:0050789'
p1922
asg263
(lp1923
S'GO:0008150'
p1924
aS'GO:0050789'
p1925
asg510
(lp1926
S'GO:0030001'
p1927
ag1284
asS'GO:0046872'
p1928
(lp1929
S'GO:0043169'
p1930
asg151
(lp1931
S'GO:0035725'
p1932
ag1580
ag1494
asg943
(lp1933
S'GO:0007155'
p1934
asS'GO:0001938'
p1935
(lp1936
S'GO:0001935'
p1937
ag1713
aS'GO:0050679'
p1938
asS'GO:0015718'
p1939
(lp1940
S'GO:0046942'
p1941
asg1099
(lp1942
S'GO:0034329'
p1943
ag395
ag524
asg1486
(lp1944
S'GO:0006820'
p1945
aS'GO:0071702'
p1946
asg1028
(lp1947
S'GO:0050896'
p1948
asS'GO:0001172'
p1949
(lp1950
S'GO:0097659'
p1951
asg1424
(lp1952
S'GO:0008152'
p1953
asg950
(lp1954
S'GO:0032501'
p1955
asS'GO:0032259'
p1956
(lp1957
S'GO:0008152'
p1958
asg201
(lp1959
g1141
aS'GO:0071704'
p1960
asg338
(lp1961
S'GO:0006810'
p1962
asg1195
(lp1963
S'GO:0006955'
p1964
aS'GO:0002275'
p1965
aS'GO:0045576'
p1966
asS'GO:0004415'
p1967
(lp1968
g595
asg1107
(lp1969
S'GO:0018108'
p1970
aS'GO:0001932'
p1971
asg1965
(lp1972
S'GO:0002274'
p1973
aS'GO:0002366'
p1974
asg1973
(lp1975
g1137
asg817
(lp1976
S'GO:0005975'
p1977
aS'GO:1901575'
p1978
asS'GO:0051917'
p1979
(lp1980
S'GO:0042730'
p1981
aS'GO:0030193'
p1982
asg353
(lp1983
S'GO:0016477'
p1984
aS'GO:0002376'
p1985
asS'GO:0002376'
p1986
(lp1987
S'GO:0008150'
p1988
asS'GO:0004555'
p1989
(lp1990
g598
asS'GO:0004556'
p1991
(lp1992
g1041
asS'GO:0033003'
p1993
(lp1994
S'GO:0045576'
p1995
ag1318
asg325
(lp1996
g1006
asg1259
(lp1997
S'GO:0045576'
p1998
ag755
aS'GO:0033003'
p1999
asg1202
(lp2000
S'GO:0002279'
p2001
aS'GO:0002699'
p2002
ag1993
aS'GO:0050776'
p2003
asg597
(lp2004
g1387
asS'GO:0019637'
p2005
(lp2006
g889
aS'GO:0071704'
p2007
asS'GO:0018130'
p2008
(lp2009
S'GO:0044249'
p2010
aS'GO:0046483'
p2011
asg875
(lp2012
S'GO:0071704'
p2013
asS'GO:0050921'
p2014
(lp2015
S'GO:0006935'
p2016
aS'GO:0050920'
p2017
ag1556
ag1367
asg783
(lp2018
S'GO:0016301'
p2019
ag183
aS'GO:0043549'
p2020
ag1817
asg1271
(lp2021
S'GO:0065008'
p2022
asg629
(lp2023
g518
aS'GO:0016043'
p2024
asS'GO:0099106'
p2025
(lp2026
S'GO:0005216'
p2027
aS'GO:0015267'
p2028
aS'GO:0016247'
p2029
asg1570
(lp2030
S'GO:0009187'
p2031
aS'GO:0030799'
p2032
ag345
asS'GO:0004622'
p2033
(lp2034
S'GO:0004620'
p2035
aS'GO:0052689'
p2036
asS'GO:0006928'
p2037
(lp2038
S'GO:0009987'
p2039
asS'GO:0034764'
p2040
(lp2041
S'GO:0055085'
p2042
aS'GO:0051050'
p2043
aS'GO:0034762'
p2044
asS'GO:0043229'
p2045
(lp2046
S'GO:0005622'
p2047
aS'GO:0043226'
p2048
aS'GO:0044424'
p2049
asS'GO:0051674'
p2050
(lp2051
S'GO:0051179'
p2052
asS'GO:0003674'
p2053
(lp2054
sS'GO:0005991'
p2055
(lp2056
S'GO:0005984'
p2057
asS'GO:0003676'
p2058
(lp2059
S'GO:0097159'
p2060
aS'GO:1901363'
p2061
asS'GO:0003677'
p2062
(lp2063
g2058
asg468
(lp2064
g1390
ag1062
asS'GO:0008168'
p2065
(lp2066
g1956
ag1003
asg200
(lp2067
S'GO:0071704'
p2068
asS'GO:0043227'
p2069
(lp2070
S'GO:0043226'
p2071
asg2071
(lp2072
S'GO:0005575'
p2073
asg1951
(lp2074
S'GO:0032774'
p2075
asS'GO:0019835'
p2076
(lp2077
S'GO:0009987'
p2078
asS'GO:0019834'
p2079
(lp2080
S'GO:0004623'
p2081
ag1399
asS'GO:0019836'
p2082
(lp2083
S'GO:0001897'
p2084
aS'GO:0052331'
p2085
asg824
(lp2086
S'GO:0016301'
p2087
ag1311
aS'GO:0042325'
p2088
asS'GO:0042629'
p2089
(lp2090
g880
asg1809
(lp2091
g336
asS'GO:1900046'
p2092
(lp2093
S'GO:0007599'
p2094
aS'GO:0050789'
p2095
aS'GO:0050878'
p2096
asS'GO:1900047'
p2097
(lp2098
S'GO:0007599'
p2099
aS'GO:1900046'
p2100
aS'GO:0048519'
p2101
asS'GO:0005520'
p2102
(lp2103
g1844
asg1984
(lp2104
S'GO:0048870'
p2105
asS'GO:1900048'
p2106
(lp2107
S'GO:0007599'
p2108
aS'GO:1900046'
p2109
aS'GO:0048518'
p2110
asg1667
(lp2111
S'GO:0009653'
p2112
aS'GO:0032502'
p2113
asS'GO:0005516'
p2114
(lp2115
S'GO:0005515'
p2116
asS'GO:0035150'
p2117
(lp2118
g1854
asS'GO:0016301'
p2119
(lp2120
S'GO:0016310'
p2121
ag452
asg1670
(lp2122
S'GO:0015908'
p2123
asg2123
(lp2124
S'GO:0006869'
p2125
ag1939
asg1441
(lp2126
g572
aS'GO:0030001'
p2127
asg574
(lp2128
S'GO:0006811'
p2129
asS'GO:0006811'
p2130
(lp2131
S'GO:0006810'
p2132
asg2132
(lp2133
g1272
asS'GO:0046700'
p2134
(lp2135
S'GO:0044248'
p2136
aS'GO:0046483'
p2137
asS'GO:0006816'
p2138
(lp2139
g1553
asg1712
(lp2140
S'GO:0015672'
p2141
aS'GO:0030001'
p2142
asS'GO:0006952'
p2143
(lp2144
S'GO:0006950'
p2145
asg394
(lp2146
g2053
asg2145
(lp2147
g1299
asg34
(lp2148
S'GO:0032501'
p2149
asS'GO:0006956'
p2150
(lp2151
S'GO:0002252'
p2152
aS'GO:0002253'
p2153
aS'GO:0006959'
p2154
aS'GO:0072376'
p2155
asg436
(lp2156
S'GO:0006952'
p2157
asg1964
(lp2158
S'GO:0002376'
p2159
aS'GO:0050896'
p2160
asS'GO:0034654'
p2161
(lp2162
S'GO:0044271'
p2163
aS'GO:0006139'
p2164
ag2008
aS'GO:0019438'
p2165
ag1857
asg213
(lp2166
S'GO:0018193'
p2167
asg2154
(lp2168
S'GO:0006955'
p2169
asS'GO:0050818'
p2170
(lp2171
S'GO:0050817'
p2172
ag1263
asS'GO:0050819'
p2173
(lp2174
S'GO:0050817'
p2175
aS'GO:0050818'
p2176
ag1359
asg275
(lp2177
g1152
ag994
aS'GO:0009152'
p2178
asS'GO:0048019'
p2179
(lp2180
g387
aS'GO:0005102'
p2181
aS'GO:0030547'
p2182
asg1136
(lp2183
S'GO:0006810'
p2184
asg2163
(lp2185
S'GO:0044249'
p2186
aS'GO:0034641'
p2187
asg1868
(lp2188
S'GO:0009615'
p2189
aS'GO:0002252'
p2190
aS'GO:0098542'
p2191
asg1196
(lp2192
S'GO:0006810'
p2193
aS'GO:0051649'
p2194
aS'GO:0051641'
p2195
asS'GO:0012501'
p2196
(lp2197
g725
asg317
(lp2198
S'GO:0005488'
p2199
asg1489
(lp2200
S'GO:0006950'
p2201
ag1835
asS'GO:0031401'
p2202
(lp2203
S'GO:0006464'
p2204
aS'GO:0031399'
p2205
aS'GO:0032270'
p2206
asg210
(lp2207
S'GO:0044217'
p2208
asg1139
(lp2209
S'GO:0009987'
p2210
asg1891
(lp2211
S'GO:0005737'
p2212
aS'GO:0044424'
p2213
asg999
(lp2214
S'GO:0009987'
p2215
aS'GO:0098754'
p2216
asS'GO:0004601'
p2217
(lp2218
S'GO:0016684'
p2219
aS'GO:0016209'
p2220
asS'GO:0099536'
p2221
(lp2222
g1770
asg683
(lp2223
g2221
asS'GO:0016020'
p2224
(lp2225
S'GO:0005575'
p2226
asg882
(lp2227
g1889
asg2075
(lp2228
g437
aS'GO:0009059'
p2229
ag2161
asS'GO:0030155'
p2230
(lp2231
S'GO:0007155'
p2232
aS'GO:0050789'
p2233
asS'GO:0030154'
p2234
(lp2235
g1893
asg1366
(lp2236
S'GO:0016788'
p2237
asg1613
(lp2238
S'GO:0070011'
p2239
asS'GO:0060047'
p2240
(lp2241
S'GO:0008015'
p2242
aS'GO:0003015'
p2243
asS'GO:1905150'
p2244
(lp2245
S'GO:0005248'
p2246
aS'GO:0042391'
p2247
ag147
ag497
asS'GO:0034655'
p2248
(lp2249
S'GO:0044270'
p2250
aS'GO:0006139'
p2251
aS'GO:0019439'
p2252
ag2134
aS'GO:1901361'
p2253
asg888
(lp2254
S'GO:0006508'
p2255
aS'GO:0016787'
p2256
asS'GO:0008234'
p2257
(lp2258
S'GO:0070011'
p2259
asg1025
(lp2260
S'GO:0070011'
p2261
asg10
(lp2262
g141
ag886
asg2212
(lp2263
g231
asg1930
(lp2264
S'GO:0043167'
p2265
asS'GO:0050880'
p2266
(lp2267
S'GO:0008015'
p2268
ag963
ag2117
asg2057
(lp2269
S'GO:0044262'
p2270
ag1384
asg2265
(lp2271
g300
asS'GO:0043933'
p2272
(lp2273
S'GO:0016043'
p2274
asS'GO:0032270'
p2275
(lp2276
g1160
aS'GO:0031325'
p2277
aS'GO:0032268'
p2278
ag1465
asg2255
(lp2279
g197
asS'GO:0051918'
p2280
(lp2281
S'GO:0042730'
p2282
ag1979
aS'GO:0030194'
p2283
aS'GO:0048519'
p2284
aS'GO:0032103'
p2285
asg386
(lp2286
S'GO:0006887'
p2287
ag1403
aS'GO:0060627'
p2288
asg866
(lp2289
S'GO:0008150'
p2290
asS'GO:0006644'
p2291
(lp2292
g622
ag2005
ag1700
asg1955
(lp2293
S'GO:0008150'
p2294
asg1691
(lp2295
S'GO:0005267'
p2296
aS'GO:0099106'
p2297
asg1803
(lp2298
S'GO:0008150'
p2299
asS'GO:0031334'
p2300
(lp2301
g804
aS'GO:0044089'
p2302
aS'GO:0043254'
p2303
aS'GO:0051130'
p2304
asg2288
(lp2305
S'GO:0016192'
p2306
aS'GO:0050794'
p2307
aS'GO:0051049'
p2308
asS'GO:0004860'
p2309
(lp2310
S'GO:0004672'
p2311
ag120
ag779
ag770
ag795
asS'GO:0090330'
p2312
(lp2313
g164
ag1897
ag133
asS'GO:0032870'
p2314
(lp2315
S'GO:0071310'
p2316
aS'GO:0071495'
p2317
ag1523
asS'GO:0004866'
p2318
(lp2319
S'GO:0004175'
p2320
ag833
aS'GO:0030414'
p2321
ag1755
asS'GO:0004867'
p2322
(lp2323
S'GO:0004252'
p2324
aS'GO:0004866'
p2325
asg2032
(lp2326
S'GO:0009187'
p2327
ag892
asS'GO:0004869'
p2328
(lp2329
g2257
aS'GO:0004866'
p2330
asg30
(lp2331
S'GO:0051179'
p2332
aS'GO:0050789'
p2333
asg2250
(lp2334
S'GO:0044248'
p2335
aS'GO:0034641'
p2336
asS'GO:0030550'
p2337
(lp2338
S'GO:0015464'
p2339
ag1455
ag1432
asg1716
(lp2340
S'GO:0050673'
p2341
ag665
asg1938
(lp2342
S'GO:0050673'
p2343
ag575
aS'GO:0050678'
p2344
asS'GO:0090305'
p2345
(lp2346
S'GO:0090304'
p2347
asg1248
(lp2348
g2345
aS'GO:0016788'
p2349
asg1392
(lp2350
S'GO:0004518'
p2351
asS'GO:0001954'
p2352
(lp2353
S'GO:0007160'
p2354
aS'GO:0001952'
p2355
ag1751
asg2355
(lp2356
S'GO:0007160'
p2357
aS'GO:0010810'
p2358
asg2229
(lp2359
S'GO:0043170'
p2360
aS'GO:1901576'
p2361
asS'GO:0050673'
p2362
(lp2363
g585
asS'GO:0022832'
p2364
(lp2365
S'GO:0051049'
p2366
aS'GO:0022836'
p2367
asg2367
(lp2368
S'GO:0015267'
p2369
asS'GO:0006006'
p2370
(lp2371
g1243
asg1522
(lp2372
g1326
aS'GO:0022891'
p2373
asS'GO:0031400'
p2374
(lp2375
S'GO:0006464'
p2376
aS'GO:0031399'
p2377
aS'GO:0032269'
p2378
asS'GO:0045202'
p2379
(lp2380
S'GO:0005575'
p2381
asg1154
(lp2382
S'GO:0009117'
p2383
asS'GO:0043267'
p2384
(lp2385
S'GO:0006813'
p2386
aS'GO:0043266'
p2387
ag1532
asg2387
(lp2388
S'GO:0006813'
p2389
aS'GO:0010959'
p2390
asS'GO:0043269'
p2391
(lp2392
S'GO:0006811'
p2393
ag27
asg1040
(lp2394
S'GO:0003012'
p2395
asg2243
(lp2396
S'GO:0003013'
p2397
asg2253
(lp2398
S'GO:1901360'
p2399
aS'GO:1901575'
p2400
asS'GO:0006937'
p2401
(lp2402
S'GO:0006936'
p2403
ag829
asg2068
(lp2404
S'GO:0008152'
p2405
asg2316
(lp2406
g1075
ag1407
asg1946
(lp2407
S'GO:0006810'
p2408
asg41
(lp2409
g502
ag2248
ag79
asg2220
(lp2410
g997
aS'GO:0003674'
p2411
asg1503
(lp2412
S'GO:0008202'
p2413
ag1779
aS'GO:1901362'
p2414
asg356
(lp2415
S'GO:0016477'
p2416
aS'GO:0030334'
p2417
ag1334
asg364
(lp2418
S'GO:0016477'
p2419
ag1329
asS'GO:0007589'
p2420
(lp2421
S'GO:0046903'
p2422
aS'GO:0050878'
p2423
asg1902
(lp2424
g1903
aS'GO:0044217'
p2425
asg1644
(lp2426
S'GO:0050790'
p2427
aS'GO:0003824'
p2428
ag74
asS'GO:0006915'
p2429
(lp2430
g2196
asg1768
(lp2431
g1900
aS'GO:0033643'
p2432
asS'GO:0033644'
p2433
(lp2434
S'GO:0033643'
p2435
aS'GO:0044218'
p2436
asg115
(lp2437
S'GO:0005488'
p2438
asg471
(lp2439
S'GO:0006811'
p2440
aS'GO:0055085'
p2441
asg2219
(lp2442
S'GO:0016491'
p2443
asS'GO:0035892'
p2444
(lp2445
S'GO:0035806'
p2446
ag2312
aS'GO:0044364'
p2447
asg42
(lp2448
S'GO:0006753'
p2449
asg1464
(lp2450
S'GO:0006807'
p2451
aS'GO:0019222'
p2452
asg1431
(lp2453
S'GO:0006807'
p2454
aS'GO:0009892'
p2455
aS'GO:0051171'
p2456
asg2194
(lp2457
S'GO:0051641'
p2458
aS'GO:0051234'
p2459
asS'GO:0008191'
p2460
(lp2461
S'GO:0004222'
p2462
ag2318
asS'GO:0009056'
p2463
(lp2464
S'GO:0008152'
p2465
asg1274
(lp2466
S'GO:0008150'
p2467
asg290
(lp2468
S'GO:0051641'
p2469
asg2469
(lp2470
S'GO:0051179'
p2471
asS'GO:0008970'
p2472
(lp2473
S'GO:0004620'
p2474
aS'GO:0052689'
p2475
asg1226
(lp2476
S'GO:0035738'
p2477
asS'GO:0044481'
p2478
(lp2479
S'GO:0035738'
p2480
asS'GO:0044487'
p2481
(lp2482
S'GO:0035738'
p2483
asS'GO:0044484'
p2484
(lp2485
S'GO:0044483'
p2486
asS'GO:0044485'
p2487
(lp2488
g1224
asS'GO:0097747'
p2489
(lp2490
g441
asg1457
(lp2491
S'GO:0004872'
p2492
aS'GO:0010469'
p2493
aS'GO:0044092'
p2494
asS'GO:0044478'
p2495
(lp2496
S'GO:0044365'
p2497
aS'GO:0044469'
p2498
asS'GO:0050482'
p2499
(lp2500
S'GO:0032309'
p2501
ag1668
asg1505
(lp2502
S'GO:1901576'
p2503
aS'GO:1901615'
p2504
asg2317
(lp2505
S'GO:0009719'
p2506
asS'GO:0019871'
p2507
(lp2508
S'GO:0005272'
p2509
aS'GO:0008200'
p2510
aS'GO:0017080'
p2511
asS'GO:0004888'
p2512
(lp2513
g954
aS'GO:0038023'
p2514
ag1110
asS'GO:0044561'
p2515
(lp2516
g1059
asg405
(lp2517
S'GO:0035738'
p2518
asg1213
(lp2519
g403
asS'GO:0016504'
p2520
(lp2521
S'GO:0008233'
p2522
ag841
ag1640
ag1760
asg1509
(lp2523
S'GO:0071704'
p2524
asg531
(lp2525
S'GO:0006939'
p2526
ag2401
asg604
(lp2527
S'GO:0040007'
p2528
aS'GO:0050789'
p2529
asg1705
(lp2530
S'GO:0008238'
p2531
asg1462
(lp2532
S'GO:0044238'
p2533
ag1824
asS'GO:0006695'
p2534
(lp2535
S'GO:0008203'
p2536
ag1501
ag1049
asg1699
(lp2537
S'GO:0044560'
p2538
asg1945
(lp2539
g2130
asg2017
(lp2540
S'GO:0006935'
p2541
ag853
aS'GO:0032101'
p2542
asS'GO:0008270'
p2543
(lp2544
g1175
asS'GO:0051893'
p2545
(lp2546
S'GO:0048041'
p2547
aS'GO:0001952'
p2548
ag1096
ag296
asS'GO:0034765'
p2549
(lp2550
S'GO:0034220'
p2551
ag2391
aS'GO:0034762'
p2552
asg1574
(lp2553
S'GO:0034220'
p2554
ag2040
ag1527
aS'GO:0034765'
p2555
asS'GO:0007600'
p2556
(lp2557
g588
asg2552
(lp2558
S'GO:0055085'
p2559
aS'GO:0051049'
p2560
asS'GO:0051894'
p2561
(lp2562
g1645
ag2352
ag2545
ag303
ag932
asS'GO:0009755'
p2563
(lp2564
g2314
aS'GO:0007165'
p2565
asg1430
(lp2566
S'GO:0043170'
p2567
aS'GO:0009892'
p2568
aS'GO:0060255'
p2569
asg1469
(lp2570
S'GO:0043170'
p2571
aS'GO:0009893'
p2572
aS'GO:0060255'
p2573
asg1029
(lp2574
S'GO:0009605'
p2575
ag848
asg2189
(lp2576
S'GO:0051707'
p2577
asS'GO:0009617'
p2578
(lp2579
g1072
asS'GO:0009611'
p2580
(lp2581
S'GO:0006950'
p2582
asg2167
(lp2583
g809
asg1542
(lp2584
S'GO:0051704'
p2585
asg879
(lp2586
S'GO:0006629'
p2587
aS'GO:0009893'
p2588
aS'GO:0019216'
p2589
asg917
(lp2590
S'GO:0065008'
p2591
asg1393
(lp2592
g1810
aS'GO:0004518'
p2593
asg1463
(lp2594
S'GO:0043170'
p2595
aS'GO:0019222'
p2596
asS'GO:0016818'
p2597
(lp2598
g463
asg2311
(lp2599
S'GO:0006468'
p2600
ag2119
ag449
asg2395
(lp2601
S'GO:0003008'
p2602
asS'GO:0030162'
p2603
(lp2604
S'GO:0006508'
p2605
ag1459
asS'GO:0003968'
p2606
(lp2607
g1949
aS'GO:0034062'
p2608
asS'GO:0010876'
p2609
(lp2610
g1019
asg166
(lp2611
S'GO:0007596'
p2612
aS'GO:0001775'
p2613
asg1892
(lp2614
g2069
ag2045
asg1909
(lp2615
g1082
asg2105
(lp2616
g2050
aS'GO:0040011'
p2617
ag2037
asS'GO:0097367'
p2618
(lp2619
S'GO:0005488'
p2620
asg929
(lp2621
g2138
aS'GO:0098662'
p2622
asS'GO:0048878'
p2623
(lp2624
g699
asS'GO:0006163'
p2625
(lp2626
S'GO:0009117'
p2627
ag1650
asg996
(lp2628
g52
aS'GO:0006163'
p2629
ag1657
asS'GO:0030193'
p2630
(lp2631
S'GO:0007596'
p2632
ag2170
ag1372
aS'GO:0061041'
p2633
ag2092
asg2165
(lp2634
S'GO:0006725'
p2635
aS'GO:0044249'
p2636
asg2501
(lp2637
g1588
ag1134
asS'GO:0030195'
p2638
(lp2639
S'GO:0007596'
p2640
ag717
aS'GO:0030193'
p2641
ag2173
ag2097
asg1610
(lp2642
S'GO:0007596'
p2643
aS'GO:0090303'
p2644
ag2630
aS'GO:0050820'
p2645
ag2106
asS'GO:0005126'
p2646
(lp2647
S'GO:0005102'
p2648
asg1678
(lp2649
S'GO:0098609'
p2650
ag1156
asg286
(lp2651
S'GO:0005102'
p2652
asS'GO:1905152'
p2653
(lp2654
S'GO:0005248'
p2655
aS'GO:1905150'
p2656
aS'GO:2000651'
p2657
ag491
asg2339
(lp2658
g2512
ag138
asg279
(lp2659
S'GO:0006164'
p2660
aS'GO:1900544'
p2661
aS'GO:0030810'
p2662
aS'GO:1900371'
p2663
asg339
(lp2664
S'GO:0046903'
p2665
aS'GO:0009987'
p2666
asS'GO:0042742'
p2667
(lp2668
g2578
ag606
asS'GO:0052739'
p2669
(lp2670
S'GO:0004620'
p2671
aS'GO:0052689'
p2672
asg1402
(lp2673
S'GO:0016298'
p2674
aS'GO:0004857'
p2675
asg1877
(lp2676
S'GO:0007165'
p2677
asg2361
(lp2678
g1308
aS'GO:0071704'
p2679
asS'GO:1901575'
p2680
(lp2681
g2463
aS'GO:0071704'
p2682
asg603
(lp2683
S'GO:0040007'
p2684
aS'GO:0009987'
p2685
asg1590
(lp2686
S'GO:0071702'
p2687
asg186
(lp2688
S'GO:0006796'
p2689
aS'GO:0019220'
p2690
aS'GO:0010563'
p2691
asg1632
(lp2692
g1863
aS'GO:0009987'
p2693
asS'GO:0016042'
p2694
(lp2695
g399
ag2680
asg808
(lp2696
S'GO:0022607'
p2697
aS'GO:0043933'
p2698
asg2358
(lp2699
S'GO:0031589'
p2700
ag2230
asS'GO:0010544'
p2701
(lp2702
S'GO:0030168'
p2703
ag340
aS'GO:0010543'
p2704
aS'GO:0030195'
p2705
asg1974
(lp2706
S'GO:0006955'
p2707
ag989
aS'GO:0045321'
p2708
asg315
(lp2709
S'GO:0008150'
p2710
asg1444
(lp2711
S'GO:0098655'
p2712
aS'GO:0098660'
p2713
asg2713
(lp2714
S'GO:0034220'
p2715
asg738
(lp2716
g2556
asg1328
(lp2717
S'GO:0022857'
p2718
asg1242
(lp2719
S'GO:0003674'
p2720
aS'GO:0065007'
p2721
asg716
(lp2722
S'GO:0065007'
p2723
asg306
(lp2724
S'GO:0016043'
p2725
aS'GO:0051128'
p2726
aS'GO:0048522'
p2727
asg1564
(lp2728
S'GO:0043167'
p2729
asS'GO:0006139'
p2730
(lp2731
S'GO:0044238'
p2732
aS'GO:0034641'
p2733
ag1647
ag173
ag1692
asg715
(lp2734
g948
asg1475
(lp2735
g2240
ag426
asg2178
(lp2736
S'GO:0009150'
p2737
ag418
aS'GO:0006164'
p2738
asg33
(lp2739
g2580
asg1155
(lp2740
g1417
ag2625
asg2252
(lp2741
S'GO:0006725'
p2742
aS'GO:0044248'
p2743
asg812
(lp2744
S'GO:0019538'
p2745
ag423
asS'GO:0008150'
p2746
(lp2747
sg656
(lp2748
S'GO:0035738'
p2749
asg1789
(lp2750
g2746
asg2303
(lp2751
S'GO:0006461'
p2752
aS'GO:0044087'
p2753
aS'GO:0051128'
p2754
asg2282
(lp2755
S'GO:0030195'
p2756
asg742
(lp2757
S'GO:0050877'
p2758
aS'GO:0044057'
p2759
asg1435
(lp2760
S'GO:0030594'
p2761
ag1113
aS'GO:0030545'
p2762
asS'GO:0052740'
p2763
(lp2764
S'GO:0004620'
p2765
aS'GO:0052689'
p2766
asg85
(lp2767
g1016
aS'GO:0044364'
p2768
asg1563
(lp2769
g2618
asg1233
(lp2770
g2597
asg2246
(lp2771
S'GO:0005272'
p2772
ag308
asS'GO:0044283'
p2773
(lp2774
S'GO:0044281'
p2775
aS'GO:0009058'
p2776
asg447
(lp2777
S'GO:0005262'
p2778
aS'GO:0099106'
p2779
asg311
(lp2780
g2549
ag2364
aS'GO:0005216'
p2781
asS'GO:0030308'
p2782
(lp2783
S'GO:0016049'
p2784
aS'GO:0001558'
p2785
ag673
aS'GO:0048523'
p2786
asg2125
(lp2787
g2609
aS'GO:0071702'
p2788
asg1365
(lp2789
S'GO:0006796'
p2790
asg777
(lp2791
S'GO:0006796'
p2792
asg697
(lp2793
g2623
asS'GO:0090729'
p2794
(lp2795
S'GO:0009405'
p2796
aS'GO:0003674'
p2797
asg923
(lp2798
S'GO:0009056'
p2799
aS'GO:0044237'
p2800
asg1887
(lp2801
S'GO:0023052'
p2802
aS'GO:0023051'
p2803
aS'GO:0048519'
p2804
asg2733
(lp2805
S'GO:0006807'
p2806
aS'GO:0044237'
p2807
asg2270
(lp2808
S'GO:0044237'
p2809
aS'GO:0005975'
p2810
asg956
(lp2811
S'GO:0008150'
p2812
asg1886
(lp2813
S'GO:0007154'
p2814
aS'GO:0010646'
p2815
aS'GO:0048523'
p2816
asg477
(lp2817
S'GO:0023052'
p2818
aS'GO:0050789'
p2819
asS'GO:0043083'
p2820
(lp2821
g2379
aS'GO:0044456'
p2822
aS'GO:0005576'
p2823
asS'GO:0001664'
p2824
(lp2825
S'GO:0005102'
p2826
asS'GO:0044242'
p2827
(lp2828
S'GO:0016042'
p2829
aS'GO:0044248'
p2830
aS'GO:0044255'
p2831
asg476
(lp2832
S'GO:0007154'
p2833
aS'GO:0050794'
p2834
asg329
(lp2835
S'GO:0003824'
p2836
aS'GO:0050790'
p2837
ag1012
asg334
(lp2838
S'GO:0003824'
p2839
aS'GO:0050790'
p2840
ag1008
asS'GO:0044363'
p2841
(lp2842
g2515
asS'GO:0044362'
p2843
(lp2844
S'GO:0044092'
p2845
aS'GO:0044359'
p2846
asS'GO:0044361'
p2847
(lp2848
S'GO:0044360'
p2849
ag2843
asg2849
(lp2850
g2841
asS'GO:0047498'
p2851
(lp2852
S'GO:0004623'
p2853
asg1687
(lp2854
g630
asg2768
(lp2855
S'GO:0035821'
p2856
asg1874
(lp2857
S'GO:0072511'
p2858
aS'GO:0022890'
p2859
asg2822
(lp2860
S'GO:0045202'
p2861
aS'GO:0005575'
p2862
asS'GO:0043393'
p2863
(lp2864
S'GO:0005515'
p2865
ag977
asS'GO:0022610'
p2866
(lp2867
S'GO:0008150'
p2868
asS'GO:0030823'
p2869
(lp2870
S'GO:0046068'
p2871
aS'GO:0030799'
p2872
aS'GO:1900542'
p2873
asg1550
(lp2874
S'GO:0042391'
p2875
asS'GO:0060422'
p2876
(lp2877
S'GO:0030414'
p2878
asg277
(lp2879
S'GO:0006182'
p2880
aS'GO:0030802'
p2881
ag2869
ag1100
asg1095
(lp2882
g1910
aS'GO:0016032'
p2883
asg1869
(lp2884
S'GO:0009607'
p2885
aS'GO:0048583'
p2886
asg1051
(lp2887
S'GO:0006066'
p2888
ag2773
aS'GO:1901617'
p2889
asg238
(lp2890
S'GO:0016788'
p2891
asg2608
(lp2892
g2489
asg2873
(lp2893
S'GO:0006163'
p2894
aS'GO:0006140'
p2895
asg2127
(lp2896
S'GO:0006812'
p2897
asg2321
(lp2898
S'GO:0008233'
p2899
aS'GO:0010466'
p2900
ag1412
aS'GO:0061134'
p2901
asg2084
(lp2902
g1356
ag896
asg2085
(lp2903
S'GO:0044403'
p2904
aS'GO:0044179'
p2905
aS'GO:0051801'
p2906
asS'GO:0008200'
p2907
(lp2908
g1520
ag1717
ag2025
asg2441
(lp2909
S'GO:0006810'
p2910
asg506
(lp2911
g2730
aS'GO:0044281'
p2912
asS'GO:1900544'
p2913
(lp2914
S'GO:0006163'
p2915
aS'GO:0045981'
p2916
aS'GO:1900542'
p2917
asS'GO:0032269'
p2918
(lp2919
S'GO:0044267'
p2920
aS'GO:0031324'
p2921
aS'GO:0032268'
p2922
ag1426
asg2278
(lp2923
S'GO:0044267'
p2924
aS'GO:0031323'
p2925
aS'GO:0051246'
p2926
asg2645
(lp2927
S'GO:0050817'
p2928
aS'GO:0050818'
p2929
ag1450
asg1245
(lp2930
S'GO:0005975'
p2931
ag59
asg815
(lp2932
S'GO:0005975'
p2933
aS'GO:0043170'
p2934
asg649
(lp2935
S'GO:0005575'
p2936
asg233
(lp2937
g647
asg287
(lp2938
S'GO:0005102'
p2939
ag2863
asS'GO:0042802'
p2940
(lp2941
S'GO:0005515'
p2942
asS'GO:0045776'
p2943
(lp2944
S'GO:0008217'
p2945
asg844
(lp2946
S'GO:0006508'
p2947
ag2603
ag2275
asS'GO:0045861'
p2948
(lp2949
S'GO:0006508'
p2950
aS'GO:0030162'
p2951
ag2918
asS'GO:0042803'
p2952
(lp2953
g2940
aS'GO:0046983'
p2954
asS'GO:0031859'
p2955
(lp2956
g2824
asS'GO:0070265'
p2957
(lp2958
S'GO:0008219'
p2959
asg864
(lp2960
g1302
aS'GO:0004872'
p2961
asg2514
(lp2962
S'GO:0007165'
p2963
aS'GO:0004871'
p2964
aS'GO:0004872'
p2965
asg775
(lp2966
S'GO:0042325'
p2967
aS'GO:0016301'
p2968
aS'GO:0030234'
p2969
asg561
(lp2970
S'GO:0044249'
p2971
ag1543
aS'GO:0031325'
p2972
aS'GO:0031326'
p2973
asg1619
(lp2974
S'GO:0044249'
p2975
ag409
aS'GO:0031323'
p2976
asg2277
(lp2977
S'GO:0044237'
p2978
ag264
aS'GO:0031323'
p2979
ag905
asg2921
(lp2980
S'GO:0044237'
p2981
ag259
aS'GO:0031323'
p2982
ag900
asg2979
(lp2983
S'GO:0044237'
p2984
aS'GO:0019222'
p2985
ag1249
asg2506
(lp2986
S'GO:0050896'
p2987
asg440
(lp2988
S'GO:0006139'
p2989
aS'GO:0043170'
p2990
asS'GO:0042310'
p2991
(lp2992
g1681
asg2965
(lp2993
g1847
asg2964
(lp2994
S'GO:0007165'
p2995
aS'GO:0003674'
p2996
asg2644
(lp2997
S'GO:0042060'
p2998
ag706
ag1591
asg754
(lp2999
S'GO:0008219'
p3000
aS'GO:0050794'
p3001
asg2216
(lp3002
g743
aS'GO:0008150'
p3003
asS'GO:0050662'
p3004
(lp3005
S'GO:0048037'
p3006
asS'GO:0035893'
p3007
(lp3008
g2444
aS'GO:0090331'
p3009
aS'GO:0035899'
p3010
asS'GO:0050660'
p3011
(lp3012
g3004
aS'GO:0000166'
p3013
aS'GO:0043168'
p3014
asg216
(lp3015
S'GO:0035821'
p3016
aS'GO:0043304'
p3017
asg2684
(lp3018
S'GO:0008150'
p3019
asg807
(lp3020
g2272
asS'GO:0072376'
p3021
(lp3022
S'GO:0050896'
p3023
aS'GO:0019538'
p3024
asS'GO:0035899'
p3025
(lp3026
g2638
aS'GO:0035806'
p3027
asg250
(lp3028
g859
asS'GO:0044179'
p3029
(lp3030
g83
asg698
(lp3031
S'GO:0042592'
p3032
aS'GO:0050789'
p3033
aS'GO:0065008'
p3034
asg836
(lp3035
S'GO:0008233'
p3036
ag2948
aS'GO:0052547'
p3037
ag326
asg2493
(lp3038
S'GO:0004872'
p3039
aS'GO:0065009'
p3040
ag473
asS'GO:0005179'
p3041
(lp3042
g1602
asg1345
(lp3043
S'GO:0051707'
p3044
asg1324
(lp3045
g1709
aS'GO:0005261'
p3046
ag1878
asg1912
(lp3047
S'GO:0044403'
p3048
asg167
(lp3049
g406
asS'GO:0005172'
p3050
(lp3051
g2646
aS'GO:0070851'
p3052
asg2186
(lp3053
S'GO:0009058'
p3054
aS'GO:0044237'
p3055
asS'GO:0009395'
p3056
(lp3057
S'GO:0006644'
p3058
ag2827
aS'GO:0046434'
p3059
asg1193
(lp3060
S'GO:0002444'
p3061
asg2657
(lp3062
S'GO:0015081'
p3063
ag1166
ag372
aS'GO:2000649'
p3064
asS'GO:0005886'
p3065
(lp3066
g710
aS'GO:0016020'
p3067
aS'GO:0044464'
p3068
asg1934
(lp3069
g2866
asg957
(lp3070
S'GO:0009987'
p3071
asS'GO:0002443'
p3072
(lp3073
S'GO:0002252'
p3074
asg3061
(lp3075
g3072
asg2536
(lp3076
g1506
ag1053
asg3009
(lp3077
S'GO:0070527'
p3078
ag2701
ag924
aS'GO:0090330'
p3079
asg278
(lp3080
S'GO:0046068'
p3081
aS'GO:0030823'
p3082
aS'GO:0030801'
p3083
ag2913
asg1971
(lp3084
S'GO:0006468'
p3085
ag1480
ag176
asg1919
(lp3086
S'GO:0016298'
p3087
aS'GO:0052689'
p3088
asg1163
(lp3089
S'GO:0043170'
p3090
aS'GO:0044237'
p3091
asg3052
(lp3092
S'GO:0005102'
p3093
asS'GO:0045777'
p3094
(lp3095
S'GO:0008217'
p3096
asg2691
(lp3097
S'GO:0006793'
p3098
aS'GO:0031324'
p3099
aS'GO:0051174'
p3100
asg1108
(lp3101
S'GO:0006468'
p3102
ag2202
ag1044
aS'GO:0001932'
p3103
asS'GO:0005575'
p3104
(lp3105
sg457
(lp3106
g3021
ag434
asS'GO:0005576'
p3107
(lp3108
g3104
asg2153
(lp3109
S'GO:0002376'
p3110
ag291
asg3074
(lp3111
g1986
asg3006
(lp3112
S'GO:0005488'
p3113
asg784
(lp3114
S'GO:0006468'
p3115
ag2374
aS'GO:0042326'
p3116
aS'GO:0001932'
p3117
asg2712
(lp3118
S'GO:0006812'
p3119
aS'GO:0034220'
p3120
asg1937
(lp3121
g2362
asg2856
(lp3122
S'GO:0044419'
p3123
asg1966
(lp3124
S'GO:0002274'
p3125
assS'_rel_table'
p3126
ccollections
defaultdict
p3127
(c__builtin__
dict
p3128
tp3129
Rp3130
g8
(dp3131
g11
S'is_a'
p3132
sg10
g3132
ssg12
(dp3133
g14
g3132
ssg15
(dp3134
g17
g3132
ssg18
(dp3135
g21
g3132
sg20
S'regulates'
p3136
ssg22
(dp3137
g24
S'positively_regulates'
p3138
sg25
g3132
sg26
g3132
ssg27
(dp3139
g30
g3132
sg29
S'regulates'
p3140
ssg31
(dp3141
g34
g3132
sg12
g3132
sg33
S'part_of'
p3142
ssg35
(dp3143
g38
g3132
sg37
S'part_of'
p3144
ssg39
(dp3145
g42
g3132
sg41
g3132
ssg43
(dp3146
g46
g3132
sg45
g3132
ssg47
(dp3147
g51
g3132
sg49
S'positively_regulates'
p3148
sg50
g3132
ssg52
(dp3149
g55
g3132
sg54
g3132
ssg51
(dp3150
g58
g3132
sg57
S'regulates'
p3151
ssg59
(dp3152
g61
g3132
ssg62
(dp3153
g65
g3132
sg64
S'part_of'
p3154
ssg66
(dp3155
g69
g3132
sg68
S'positively_regulates'
p3156
sg70
g3132
ssg71
(dp3157
g73
g3132
ssg74
(dp3158
g77
S'part_of'
p3159
sg76
g3132
ssg79
(dp3160
g81
g3132
sg82
g3132
ssg83
(dp3161
g87
g3132
sg86
g3132
sg85
g3132
ssg88
(dp3162
g90
g3132
sg91
g3132
ssg92
(dp3163
g94
g3132
ssg95
(dp3164
g98
g3132
sg97
g3132
ssg99
(dp3165
g101
g3132
ssg102
(dp3166
g104
g3132
ssg105
(dp3167
g107
g3132
ssg108
(dp3168
g110
g3132
sg111
g3132
ssg112
(dp3169
g115
g3132
sg114
g3132
ssg116
(dp3170
g119
g3132
sg118
S'regulates'
p3171
ssg120
(dp3172
g122
S'part_of'
p3173
sg123
g3132
ssg124
(dp3174
g127
g3132
sg126
g3132
ssg128
(dp3175
g132
g3132
sg131
g3132
sg130
S'regulates'
p3176
ssg133
(dp3177
g136
g3132
sg137
g3132
sg135
S'regulates'
p3178
ssg138
(dp3179
g140
g3132
ssg141
(dp3180
g143
g3132
ssg144
(dp3181
g146
g3132
ssg147
(dp3182
g151
g3132
sg149
S'regulates'
p3183
sg150
g3132
ssg152
(dp3184
g154
g3132
sg155
g3132
ssg156
(dp3185
g158
g3132
ssg159
(dp3186
g163
g3132
sg162
g3132
sg161
S'regulates'
p3187
ssg164
(dp3188
g167
g3132
sg166
S'part_of'
p3189
ssg168
(dp3190
g170
g3132
ssg46
(dp3191
g172
g3132
ssg173
(dp3192
g175
g3132
ssg176
(dp3193
g178
S'regulates'
p3194
sg179
g3132
ssg180
(dp3195
g182
g3132
ssg183
(dp3196
g187
g3132
sg185
S'negatively_regulates'
p3197
sg186
g3132
ssg188
(dp3198
g191
g3132
sg190
S'part_of'
p3199
ssg192
(dp3200
g194
g3132
ssg97
(dp3201
g196
g3132
ssg197
(dp3202
g199
g3132
sg201
g3132
sg200
g3132
ssg202
(dp3203
g204
g3132
ssg205
(dp3204
g207
g3132
ssg208
(dp3205
g210
g3132
sg192
S'part_of'
p3206
ssg211
(dp3207
g213
g3132
ssg214
(dp3208
g216
g3132
sg217
g3132
ssg218
(dp3209
g220
g3132
ssg221
(dp3210
g224
g3132
sg223
S'positively_regulates'
p3211
sg225
g3132
ssg226
(dp3212
g228
S'negatively_regulates'
p3213
sg230
g3132
sg229
g3132
ssg231
(dp3214
g234
g3132
sg233
S'part_of'
p3215
ssg235
(dp3216
g237
g3132
sg238
g3132
ssg237
(dp3217
g240
g3132
ssg241
(dp3218
g244
g3132
sg243
S'part_of'
p3219
ssg245
(dp3220
g247
g3132
ssg248
(dp3221
g250
g3132
ssg251
(dp3222
g255
g3132
sg253
S'positively_regulates'
p3223
sg254
g3132
ssg255
(dp3224
g257
S'regulates'
p3225
sg258
g3132
ssg259
(dp3226
g263
g3132
sg262
g3132
sg261
S'negatively_regulates'
p3227
ssg264
(dp3228
g268
g3132
sg267
g3132
sg266
S'positively_regulates'
p3229
ssg150
(dp3230
g270
S'regulates'
p3231
sg271
g3132
sg272
g3132
ssg273
(dp3232
g276
g3132
sg278
g3132
sg277
g3132
sg279
g3132
sg275
S'positively_regulates'
p3233
ssg280
(dp3234
g283
g3132
sg282
S'regulates'
p3235
ssg284
(dp3236
g286
S'regulates'
p3237
sg287
g3132
ssg288
(dp3238
g290
g3132
ssg291
(dp3239
g295
g3132
sg294
g3132
sg159
g3132
sg293
S'positively_regulates'
p3240
ssg296
(dp3241
g298
S'regulates'
p3242
sg299
g3132
ssg300
(dp3243
g302
g3132
ssg303
(dp3244
g306
g3132
sg305
S'positively_regulates'
p3245
sg307
g3132
ssg308
(dp3246
g310
S'part_of'
p3247
sg311
g3132
ssg312
(dp3248
g315
g3132
sg314
S'regulates'
p3249
ssg114
(dp3250
g317
g3132
sg318
g3132
ssg319
(dp3251
g321
g3132
sg322
g3132
ssg323
(dp3252
g325
g3132
ssg326
(dp3253
g330
g3132
sg328
S'negatively_regulates'
p3254
sg329
g3132
ssg331
(dp3255
g335
g3132
sg333
S'positively_regulates'
p3256
sg334
g3132
ssg336
(dp3257
g339
g3132
sg338
g3132
ssg340
(dp3258
g343
g3132
sg342
S'negatively_regulates'
p3259
sg344
g3132
ssg345
(dp3260
g348
g3132
sg347
S'positively_regulates'
p3261
sg350
g3132
sg349
g3132
ssg351
(dp3262
g356
g3132
sg353
S'positively_regulates'
p3263
sg355
g3132
sg354
g3132
ssg294
(dp3264
g358
S'positively_regulates'
p3265
sg359
g3132
sg360
g3132
ssg355
(dp3266
g362
S'regulates'
p3267
sg364
g3132
sg363
g3132
ssg365
(dp3268
g367
S'regulates'
p3269
sg368
g3132
ssg369
(dp3270
g371
g3132
ssg372
(dp3271
g374
S'positively_regulates'
p3272
sg375
g3132
sg376
g3132
sg377
g3132
ssg378
(dp3273
g381
g3132
sg382
g3132
sg380
S'positively_regulates'
p3274
ssg383
(dp3275
g386
g3132
sg385
S'regulates'
p3276
ssg387
(dp3277
g390
g3132
sg389
g3132
ssg389
(dp3278
g392
g3132
ssg143
(dp3279
g394
g3132
ssg395
(dp3280
g397
S'regulates'
p3281
sg398
g3132
ssg399
(dp3282
g401
g3132
sg402
g3132
ssg403
(dp3283
g405
g3132
ssg406
(dp3284
g408
g3132
ssg409
(dp3285
g411
S'regulates'
p3286
sg412
g3132
ssg413
(dp3287
g92
g3132
ssg415
(dp3288
g417
g3132
ssg418
(dp3289
g420
g3132
sg422
g3132
sg421
g3132
ssg423
(dp3290
g425
g3132
ssg426
(dp3291
g428
S'regulates'
p3292
sg429
g3132
ssg230
(dp3293
g431
S'negatively_regulates'
p3294
sg432
g3132
sg433
g3132
ssg434
(dp3295
g436
g3132
ssg437
(dp3296
g440
g3132
sg439
g3132
ssg441
(dp3297
g443
g3132
ssg444
(dp3298
g447
g3132
sg448
g3132
sg446
S'negatively_regulates'
p3299
ssg449
(dp3300
g451
g3132
ssg452
(dp3301
g454
g3132
ssg455
(dp3302
g457
g3132
ssg458
(dp3303
g461
g3132
sg462
g3132
sg460
g3132
ssg463
(dp3304
g465
g3132
ssg466
(dp3305
g468
g3132
ssg469
(dp3306
g472
g3132
sg471
S'part_of'
p3307
ssg473
(dp3308
g476
g3132
sg478
g3132
sg475
S'regulates'
p3309
sg477
g3132
ssg479
(dp3310
g482
g3132
sg481
S'part_of'
p3311
ssg483
(dp3312
g485
g3132
sg486
g3132
ssg54
(dp3313
g489
g3132
sg488
g3132
sg490
g3132
ssg491
(dp3314
g495
g3132
sg496
g3132
sg494
g3132
sg493
S'positively_regulates'
p3315
ssg497
(dp3316
g500
g3132
sg499
S'regulates'
p3317
sg501
g3132
ssg502
(dp3318
g505
g3132
sg504
g3132
sg506
g3132
ssg507
(dp3319
g510
g3132
sg479
g3132
sg509
S'part_of'
p3320
ssg511
(dp3321
g513
g3132
ssg514
(dp3322
g517
g3132
sg516
g3132
ssg518
(dp3323
g520
g3132
ssg521
(dp3324
g523
g3132
sg102
g3132
ssg524
(dp3325
g526
S'regulates'
p3326
sg527
g3132
ssg528
(dp3327
g530
S'positively_regulates'
p3328
sg532
g3132
sg531
g3132
ssg533
(dp3329
g536
g3132
sg535
S'regulates'
p3330
ssg537
(dp3331
g540
g3132
sg539
g3132
ssg541
(dp3332
g543
g3132
ssg544
(dp3333
g541
g3132
ssg546
(dp3334
g548
g3132
ssg549
(dp3335
g552
g3132
sg551
S'part_of'
p3336
ssg553
(dp3337
g555
g3132
ssg556
(dp3338
g558
S'positively_regulates'
p3339
sg561
g3132
sg559
g3132
sg560
g3132
ssg562
(dp3340
g564
g3132
ssg565
(dp3341
g567
S'part_of'
p3342
sg568
g3132
ssg569
(dp3343
g571
g3132
ssg572
(dp3344
g574
g3132
ssg575
(dp3345
g578
g3132
sg579
g3132
sg577
S'positively_regulates'
p3346
ssg472
(dp3347
g581
g3132
sg582
g3132
ssg14
(dp3348
g584
g3132
ssg585
(dp3349
g587
g3132
ssg588
(dp3350
g590
g3132
ssg591
(dp3351
g594
g3132
sg593
S'part_of'
p3352
ssg595
(dp3353
g597
g3132
ssg598
(dp3354
g600
g3132
ssg601
(dp3355
g604
g3132
sg603
S'regulates'
p3356
sg605
g3132
ssg606
(dp3357
g608
g3132
sg609
g3132
ssg610
(dp3358
g613
g3132
sg612
g3132
ssg614
(dp3359
g617
g3132
sg616
g3132
ssg618
(dp3360
g620
S'regulates'
p3361
sg621
g3132
ssg622
(dp3362
g624
g3132
sg625
g3132
ssg626
(dp3363
g628
g3132
sg629
g3132
ssg630
(dp3364
g632
g3132
ssg633
(dp3365
g635
g3132
sg636
g3132
ssg637
(dp3366
g639
g3132
sg640
g3132
ssg641
(dp3367
g643
g3132
ssg644
(dp3368
g646
g3132
ssg647
(dp3369
g650
g3132
sg649
S'part_of'
p3370
ssg651
(dp3371
g654
g3132
sg653
g3132
ssg101
(dp3372
g656
g3132
ssg657
(dp3373
g659
g3132
ssg632
(dp3374
g657
g3132
ssg661
(dp3375
g663
g3132
sg664
g3132
ssg665
(dp3376
g668
g3132
sg667
S'regulates'
p3377
ssg381
(dp3378
g672
g3132
sg670
S'positively_regulates'
p3379
sg671
g3132
ssg673
(dp3380
g676
g3132
sg677
g3132
sg675
S'negatively_regulates'
p3381
ssg131
(dp3382
g680
g3132
sg679
S'regulates'
p3383
ssg681
(dp3384
g683
g3132
ssg684
(dp3385
g686
S'positively_regulates'
p3386
sg618
g3132
sg687
g3132
ssg688
(dp3387
g690
S'regulates'
p3388
sg691
g3132
ssg692
(dp3389
g694
g3132
sg105
g3132
ssg695
(dp3390
g697
S'regulates'
p3391
sg698
g3132
ssg699
(dp3392
g701
g3132
ssg702
(dp3393
g704
S'regulates'
p3394
sg705
g3132
ssg706
(dp3395
g709
g3132
sg708
S'regulates'
p3396
ssg710
(dp3397
g712
g3132
ssg713
(dp3398
g715
S'part_of'
p3399
sg716
g3132
ssg717
(dp3400
g721
g3132
sg720
g3132
sg722
g3132
sg719
S'negatively_regulates'
p3401
ssg64
(dp3402
g724
g3132
ssg725
(dp3403
g727
g3132
ssg728
(dp3404
g730
g3132
sg731
g3132
ssg223
(dp3405
g733
g3132
ssg734
(dp3406
g736
g3132
ssg654
(dp3407
g738
S'regulates'
p3408
sg739
g3132
ssg739
(dp3409
g742
g3132
sg741
S'regulates'
p3410
ssg743
(dp3411
g745
g3132
ssg746
(dp3412
g365
g3132
sg748
S'regulates'
p3413
ssg224
(dp3414
g750
S'regulates'
p3415
sg751
g3132
ssg119
(dp3416
g753
S'regulates'
p3417
sg754
g3132
ssg755
(dp3418
g757
S'positively_regulates'
p3419
sg758
g3132
sg759
g3132
sg760
g3132
ssg761
(dp3420
g763
S'negatively_regulates'
p3421
sg765
g3132
sg764
g3132
ssg766
(dp3422
g769
g3132
sg768
g3132
sg514
g3132
ssg770
(dp3423
g774
g3132
sg772
S'part_of'
p3424
sg775
g3132
sg773
S'negatively_regulates'
p3425
ssg694
(dp3426
g777
g3132
sg778
g3132
ssg779
(dp3427
g783
g3132
sg784
g3132
sg782
g3132
sg781
S'negatively_regulates'
p3428
ssg785
(dp3429
g787
S'regulates'
p3430
sg788
g3132
ssg789
(dp3431
g791
S'regulates'
p3432
sg792
g3132
sg793
g3132
sg794
g3132
ssg795
(dp3433
g797
S'part_of'
p3434
sg799
g3132
sg798
S'regulates'
p3435
ssg800
(dp3436
g803
g3132
sg802
g3132
ssg804
(dp3437
g808
g3132
sg807
g3132
sg806
S'part_of'
p3438
ssg809
(dp3439
g811
g3132
sg812
g3132
ssg813
(dp3440
g817
g3132
sg816
g3132
sg815
g3132
ssg818
(dp3441
g820
S'regulates'
p3442
sg821
g3132
ssg782
(dp3443
g825
g3132
sg824
g3132
sg823
S'regulates'
p3444
ssg86
(dp3445
g827
g3132
sg828
g3132
ssg829
(dp3446
g831
S'regulates'
p3447
sg832
g3132
ssg833
(dp3448
g837
g3132
sg835
S'negatively_regulates'
p3449
sg836
g3132
ssg838
(dp3450
g637
g3132
sg840
g3132
ssg841
(dp3451
g844
g3132
sg843
S'positively_regulates'
p3452
sg331
g3132
sg845
g3132
ssg840
(dp3453
g847
g3132
sg565
g3132
ssg848
(dp3454
g850
g3132
ssg110
(dp3455
g852
g3132
sg226
g3132
ssg853
(dp3456
g855
S'regulates'
p3457
sg856
g3132
ssg857
(dp3458
g35
g3132
ssg859
(dp3459
g861
g3132
ssg862
(dp3460
g864
g3132
ssg731
(dp3461
g866
g3132
ssg867
(dp3462
g870
g3132
sg785
g3132
sg869
S'regulates'
p3463
ssg871
(dp3464
g874
g3132
sg873
g3132
sg875
g3132
ssg876
(dp3465
g251
g3132
sg879
g3132
sg867
g3132
sg878
S'positively_regulates'
p3466
ssg880
(dp3467
g882
g3132
ssg581
(dp3468
g885
g3132
sg884
S'part_of'
p3469
ssg886
(dp3470
g888
g3132
ssg889
(dp3471
g891
g3132
ssg892
(dp3472
g789
g3132
sg895
g3132
sg894
S'regulates'
p3473
ssg896
(dp3474
g898
g3132
sg899
g3132
ssg900
(dp3475
g903
g3132
sg902
S'negatively_regulates'
p3476
sg904
g3132
ssg905
(dp3477
g908
g3132
sg907
S'positively_regulates'
p3478
sg909
g3132
ssg910
(dp3479
g507
g3132
sg913
g3132
sg912
S'part_of'
p3480
ssg914
(dp3481
g917
g3132
sg916
g3132
ssg913
(dp3482
g919
g3132
sg591
g3132
ssg920
(dp3483
g923
g3132
sg922
g3132
ssg924
(dp3484
g926
S'negatively_regulates'
p3485
sg761
g3132
sg927
g3132
ssg446
(dp3486
g930
g3132
sg929
S'part_of'
p3487
sg931
g3132
ssg932
(dp3488
g936
g3132
sg937
g3132
sg934
S'positively_regulates'
p3489
sg935
g3132
ssg938
(dp3490
g940
g3132
ssg941
(dp3491
g943
g3132
ssg764
(dp3492
g945
S'negatively_regulates'
p3493
sg946
g3132
sg947
g3132
ssg948
(dp3494
g950
g3132
ssg951
(dp3495
g953
g3132
ssg954
(dp3496
g957
S'part_of'
p3497
sg88
S'part_of'
p3498
sg959
g3132
sg956
S'part_of'
p3499
sg958
g3132
ssg960
(dp3500
g951
g3132
sg962
g3132
ssg963
(dp3501
g965
g3132
ssg720
(dp3502
g969
g3132
sg967
S'negatively_regulates'
p3503
sg968
g3132
ssg970
(dp3504
g972
S'regulates'
p3505
sg973
g3132
ssg974
(dp3506
g976
g3132
ssg977
(dp3507
g980
g3132
sg979
S'regulates'
p3508
ssg981
(dp3509
g983
S'positively_regulates'
p3510
sg985
g3132
sg984
g3132
ssg986
(dp3511
g988
g3132
ssg989
(dp3512
g993
g3132
sg992
g3132
sg991
S'part_of'
p3513
ssg994
(dp3514
g124
g3132
sg996
g3132
ssg997
(dp3515
g999
g3132
ssg1000
(dp3516
g1002
g3132
ssg1003
(dp3517
g1005
g3132
ssg1006
(dp3518
g1000
g3132
ssg1008
(dp3519
g1011
g3132
sg1010
S'positively_regulates'
p3520
ssg1012
(dp3521
g1015
g3132
sg1014
S'negatively_regulates'
p3522
ssg1016
(dp3523
g1018
g3132
ssg1019
(dp3524
g1021
g3132
ssg1022
(dp3525
g1024
g3132
sg1025
g3132
ssg1026
(dp3526
g1028
S'part_of'
p3527
sg1029
g3132
ssg1030
(dp3528
g1033
g3132
sg1032
S'negatively_regulates'
p3529
sg1034
g3132
ssg26
(dp3530
g1038
g3132
sg1037
g3132
sg1036
S'positively_regulates'
p3531
ssg530
(dp3532
g1040
g3132
ssg1041
(dp3533
g1043
g3132
ssg1044
(dp3534
g1048
g3132
sg1046
S'positively_regulates'
p3535
sg1047
g3132
ssg1049
(dp3536
g1052
g3132
sg1051
g3132
ssg1053
(dp3537
g1055
g3132
ssg1056
(dp3538
g1058
g3132
ssg1059
(dp3539
g1061
g3132
ssg1062
(dp3540
g1064
g3132
ssg1065
(dp3541
g960
g3132
ssg98
(dp3542
g1068
g3132
ssg847
(dp3543
g1071
g3132
sg1070
S'part_of'
p3544
ssg1072
(dp3545
g95
g3132
sg1074
g3132
ssg1075
(dp3546
g1077
g3132
ssg659
(dp3547
g938
g3132
sg1079
g3132
ssg1079
(dp3548
g1081
g3132
ssg1082
(dp3549
g1084
g3132
ssg935
(dp3550
g1088
g3132
sg1087
g3132
sg1086
S'positively_regulates'
p3551
ssg1089
(dp3552
g1091
S'part_of'
p3553
sg1092
g3132
ssg1093
(dp3554
g1095
g3132
ssg1096
(dp3555
g1098
S'regulates'
p3556
sg1099
g3132
ssg1100
(dp3557
g1103
g3132
sg1104
g3132
sg1102
S'regulates'
p3558
ssg1105
(dp3559
g1107
g3132
sg1108
g3132
sg692
S'positively_regulates'
p3560
ssg240
(dp3561
g415
g3132
ssg1110
(dp3562
g1112
g3132
ssg1113
(dp3563
g1115
S'regulates'
p3564
sg1116
g3132
ssg1117
(dp3565
g205
g3132
ssg1119
(dp3566
g1121
g3132
ssg1122
(dp3567
g1124
g3132
ssg672
(dp3568
g1126
S'positively_regulates'
p3569
sg22
g3132
sg1128
g3132
sg1127
g3132
ssg1129
(dp3570
g1131
g3132
ssg1131
(dp3571
g1133
g3132
ssg1134
(dp3572
g1136
g3132
ssg1137
(dp3573
g1140
g3132
sg1139
g3132
ssg1141
(dp3574
g1143
g3132
ssg1144
(dp3575
g208
g3132
ssg1146
(dp3576
g1148
g3132
ssg1149
(dp3577
g1151
g3132
ssg1152
(dp3578
g1154
g3132
sg1155
g3132
ssg1156
(dp3579
g1158
g3132
sg1159
g3132
ssg1160
(dp3580
g1162
g3132
sg1163
g3132
ssg461
(dp3581
g1165
g3132
ssg1166
(dp3582
g1171
g3132
sg1168
S'positively_regulates'
p3583
sg1169
g3132
sg1170
g3132
ssg1172
(dp3584
g1174
g3132
ssg1175
(dp3585
g1177
g3132
ssg486
(dp3586
g1179
g3132
ssg1180
(dp3587
g1183
g3132
sg1182
S'regulates'
p3588
sg383
g3132
ssg1184
(dp3589
g1186
g3132
ssg1187
(dp3590
g1190
g3132
sg1189
S'part_of'
p3591
ssg1191
(dp3592
g1195
g3132
sg1196
g3132
sg288
g3132
sg1193
S'part_of'
p3593
sg1194
g3132
sg319
g3132
ssg1197
(dp3594
g1200
g3132
sg128
g3132
sg1199
S'regulates'
p3595
sg1202
g3132
sg1201
g3132
ssg1203
(dp3596
g66
g3132
sg1207
g3132
sg1205
S'positively_regulates'
p3597
sg1197
g3132
sg1206
g3132
sg1208
g3132
ssg806
(dp3598
g1210
g3132
ssg1211
(dp3599
g1213
g3132
ssg1214
(dp3600
g1216
g3132
sg116
g3132
ssg1217
(dp3601
g1220
g3132
sg1219
g3132
ssg1216
(dp3602
g1222
g3132
sg1223
g3132
ssg1224
(dp3603
g1226
g3132
sg1227
g3132
ssg1228
(dp3604
g1230
g3132
ssg1231
(dp3605
g1233
g3132
ssg1234
(dp3606
g1231
g3132
ssg65
(dp3607
g1237
g3132
sg920
g3132
sg1238
g3132
ssg1239
(dp3608
g1241
S'regulates'
p3609
sg1242
g3132
ssg1243
(dp3610
g1245
g3132
ssg1246
(dp3611
g1248
g3132
ssg1249
(dp3612
g1251
S'regulates'
p3613
sg1252
g3132
ssg1206
(dp3614
g47
g3132
sg1254
S'positively_regulates'
p3615
sg1255
g3132
ssg1208
(dp3616
g1260
g3132
sg1258
g3132
sg1257
S'positively_regulates'
p3617
sg1259
g3132
ssg1261
(dp3618
g1117
g3132
ssg1263
(dp3619
g1265
S'regulates'
p3620
sg1266
g3132
ssg543
(dp3621
g1269
g3132
sg1268
S'part_of'
p3622
ssg310
(dp3623
g1271
g3132
ssg1272
(dp3624
g1274
g3132
ssg490
(dp3625
g1277
g3132
sg1276
g3132
ssg1255
(dp3626
g1280
g3132
sg1279
S'regulates'
p3627
ssg1281
(dp3628
g1283
S'regulates'
p3629
sg1239
g3132
ssg1284
(dp3630
g1286
g3132
ssg582
(dp3631
g1288
g3132
ssg1289
(dp3632
g1291
g3132
ssg429
(dp3633
g1294
g3132
sg1293
S'regulates'
p3634
ssg272
(dp3635
g1296
S'regulates'
p3636
sg1297
g3132
sg1298
g3132
ssg1299
(dp3637
g1301
g3132
ssg1302
(dp3638
g1289
g3132
ssg422
(dp3639
g1307
g3132
sg1306
g3132
sg1305
g3132
ssg1308
(dp3640
g1310
g3132
ssg1311
(dp3641
g1313
S'regulates'
p3642
sg1314
g3132
ssg1315
(dp3643
g1317
g3132
ssg1318
(dp3644
g688
g3132
sg1320
S'regulates'
p3645
sg1321
g3132
ssg1322
(dp3646
g1325
g3132
sg1324
S'regulates'
p3647
ssg1326
(dp3648
g1328
g3132
ssg1329
(dp3649
g1332
g3132
sg1333
g3132
sg1331
S'regulates'
p3650
ssg1334
(dp3651
g1337
g3132
sg1339
g3132
sg1338
g3132
sg1336
S'positively_regulates'
p3652
ssg1340
(dp3653
g1342
g3132
ssg1343
(dp3654
g1345
g3132
sg1346
g3132
ssg50
(dp3655
g1349
g3132
sg1350
g3132
sg1348
S'positively_regulates'
p3656
ssg1351
(dp3657
g1355
g3132
sg1354
g3132
sg1353
S'positively_regulates'
p3658
ssg1356
(dp3659
g838
g3132
sg1358
g3132
ssg1359
(dp3660
g1363
g3132
sg1361
S'negatively_regulates'
p3661
sg1362
g3132
ssg1133
(dp3662
g1365
S'part_of'
p3663
sg1366
g3132
ssg1367
(dp3664
g1371
g3132
sg1369
S'positively_regulates'
p3665
sg1370
g3132
ssg1372
(dp3666
g1375
g3132
sg1374
S'regulates'
p3667
ssg1189
(dp3668
g1378
g3132
sg1377
S'part_of'
p3669
ssg1379
(dp3670
g1381
S'positively_regulates'
p3671
sg1382
g3132
sg1383
g3132
ssg1384
(dp3672
g1386
g3132
ssg1387
(dp3673
g1389
g3132
ssg1390
(dp3674
g1393
g3132
sg1392
g3132
ssg1394
(dp3675
g1397
g3132
sg1396
g3132
ssg1396
(dp3676
g626
g3132
ssg1399
(dp3677
g1401
S'negatively_regulates'
p3678
sg1402
g3132
ssg1403
(dp3679
g1405
S'regulates'
p3680
sg18
g3132
sg1406
g3132
ssg1407
(dp3681
g1409
g3132
sg1410
g3132
ssg460
(dp3682
g610
g3132
ssg1412
(dp3683
g1415
S'negatively_regulates'
p3684
sg1416
g3132
sg1414
S'part_of'
p3685
ssg1417
(dp3686
g1419
g3132
sg871
g3132
ssg1420
(dp3687
g1422
g3132
ssg861
(dp3688
g1425
g3132
sg1424
S'part_of'
p3689
ssg1426
(dp3690
g1428
S'negatively_regulates'
p3691
sg1430
g3132
sg1429
g3132
sg1431
g3132
ssg1432
(dp3692
g1435
g3132
sg1434
S'regulates'
p3693
ssg1436
(dp3694
g1246
g3132
sg1438
g3132
ssg1439
(dp3695
g1441
g3132
sg1442
g3132
ssg912
(dp3696
g1444
g3132
sg1439
g3132
ssg1445
(dp3697
g1449
g3132
sg1447
S'part_of'
p3698
sg1448
S'regulates'
p3699
ssg1450
(dp3700
g1454
g3132
sg1452
S'positively_regulates'
p3701
sg1453
g3132
ssg1455
(dp3702
g1457
S'part_of'
p3703
sg1458
S'negatively_regulates'
p3704
sg1445
g3132
ssg1459
(dp3705
g1461
S'regulates'
p3706
sg1463
g3132
sg1462
g3132
sg1464
g3132
ssg1465
(dp3707
g1467
S'positively_regulates'
p3708
sg1468
g3132
sg1469
g3132
sg1379
g3132
ssg816
(dp3709
g1472
g3132
sg1471
g3132
ssg523
(dp3710
g1474
g3132
sg1475
g3132
ssg1297
(dp3711
g1477
S'regulates'
p3712
sg1478
g3132
sg1479
g3132
ssg1480
(dp3713
g1483
g3132
sg1482
S'regulates'
p3714
ssg1484
(dp3715
g144
g3132
sg1486
g3132
ssg709
(dp3716
g1489
g3132
sg1488
S'regulates'
p3717
ssg722
(dp3718
g1492
g3132
sg1493
g3132
sg1491
S'negatively_regulates'
p3719
ssg1494
(dp3720
g818
g3132
sg1496
S'regulates'
p3721
ssg1170
(dp3722
g1500
g3132
sg1499
g3132
sg1498
S'positively_regulates'
p3723
ssg1501
(dp3724
g1504
g3132
sg1503
g3132
sg1505
g3132
ssg1506
(dp3725
g1508
g3132
sg1509
g3132
ssg1510
(dp3726
g1512
g3132
ssg1337
(dp3727
g1515
g3132
sg1516
g3132
sg1514
S'positively_regulates'
p3728
ssg885
(dp3729
g1518
S'part_of'
p3730
sg1519
g3132
ssg1520
(dp3731
g469
g3132
sg1522
g3132
ssg1523
(dp3732
g1525
g3132
sg1526
g3132
ssg1527
(dp3733
g1529
S'positively_regulates'
p3734
sg1530
g3132
sg1531
g3132
ssg1532
(dp3735
g1534
S'negatively_regulates'
p3736
sg1030
g3132
sg1535
g3132
ssg1332
(dp3737
g1538
g3132
sg1539
g3132
sg1537
S'regulates'
p3738
ssg1540
(dp3739
g1542
g3132
ssg1543
(dp3740
g1545
S'positively_regulates'
p3741
sg1546
g3132
sg1547
g3132
ssg1548
(dp3742
g1552
g3132
sg1550
S'regulates'
p3743
sg695
g3132
sg1551
g3132
ssg1553
(dp3744
g1555
g3132
sg641
g3132
ssg1556
(dp3745
g1558
S'positively_regulates'
p3746
sg1560
g3132
sg1559
g3132
ssg1561
(dp3747
g1563
g3132
sg546
g3132
sg1564
g3132
ssg1307
(dp3748
g1567
g3132
sg1566
g3132
ssg276
(dp3749
g1569
S'positively_regulates'
p3750
sg1570
g3132
sg556
g3132
sg1571
g3132
ssg1169
(dp3751
g1574
g3132
sg1573
S'positively_regulates'
p3752
sg1575
g3132
ssg1576
(dp3753
g1578
g3132
sg1579
g3132
ssg1580
(dp3754
g1583
g3132
sg1582
S'regulates'
p3755
ssg1571
(dp3756
g1586
g3132
sg1585
S'regulates'
p3757
sg1587
g3132
ssg1588
(dp3758
g1590
g3132
sg1484
g3132
ssg1591
(dp3759
g1594
g3132
sg1595
g3132
sg1593
S'positively_regulates'
p3760
ssg1596
(dp3761
g1598
g3132
ssg1599
(dp3762
g1601
g3132
sg728
S'part_of'
p3763
ssg1602
(dp3764
g1596
g3132
ssg1604
(dp3765
g1606
g3132
sg1607
g3132
ssg1608
(dp3766
g1604
g3132
sg1610
g3132
ssg1611
(dp3767
g1613
g3132
ssg11
(dp3768
g1615
g3132
ssg1587
(dp3769
g1618
g3132
sg1617
S'regulates'
p3770
sg1619
g3132
ssg1207
(dp3771
g1180
g3132
sg378
g3132
sg1621
S'positively_regulates'
p3772
sg1622
g3132
ssg1397
(dp3773
g1625
g3132
sg1624
g3132
ssg1625
(dp3774
g15
g3132
ssg758
(dp3775
g1629
g3132
sg1628
S'positively_regulates'
p3776
sg1630
g3132
ssg628
(dp3777
g1632
g3132
ssg1633
(dp3778
g1635
g3132
sg511
g3132
ssg1636
(dp3779
g1638
g3132
ssg1227
(dp3780
g1228
g3132
ssg1640
(dp3781
g1643
S'positively_regulates'
p3782
sg1644
g3132
sg1642
S'part_of'
p3783
ssg1645
(dp3784
g941
S'part_of'
p3785
sg1394
g3132
ssg1647
(dp3786
g1649
g3132
ssg1650
(dp3787
g1655
g3132
sg1653
g3132
sg1652
g3132
sg1656
g3132
sg1654
g3132
ssg1657
(dp3788
g1659
g3132
sg537
g3132
sg1662
g3132
sg1660
g3132
sg1663
g3132
sg1661
g3132
ssg1664
(dp3789
g1666
S'part_of'
p3790
sg1667
g3132
ssg1668
(dp3791
g1671
g3132
sg1670
g3132
ssg1055
(dp3792
g1673
g3132
sg1674
g3132
ssg1675
(dp3793
g1678
g3132
sg1677
S'part_of'
p3794
ssg1677
(dp3795
g1680
g3132
ssg1681
(dp3796
g1683
g3132
ssg1151
(dp3797
g1576
g3132
ssg1685
(dp3798
g1687
g3132
ssg1688
(dp3799
g910
S'negatively_regulates'
p3800
sg1690
g3132
sg1691
g3132
ssg1692
(dp3801
g1694
g3132
ssg1695
(dp3802
g1697
g3132
ssg1697
(dp3803
g1699
g3132
ssg1700
(dp3804
g1702
g3132
ssg1703
(dp3805
g614
g3132
sg1705
g3132
ssg1706
(dp3806
g1708
g3132
ssg1709
(dp3807
g1711
g3132
sg1712
g3132
ssg1713
(dp3808
g1716
g3132
sg1715
S'regulates'
p3809
ssg1717
(dp3810
g1720
g3132
sg1719
S'negatively_regulates'
p3811
ssg1720
(dp3812
g1723
g3132
sg1722
S'regulates'
p3813
ssg1724
(dp3814
g1726
g3132
sg1727
g3132
ssg532
(dp3815
g1731
g3132
sg1729
S'positively_regulates'
p3816
sg1730
g3132
ssg1732
(dp3817
g1736
g3132
sg1734
S'negatively_regulates'
p3818
sg1735
g3132
ssg349
(dp3819
g1739
g3132
sg1738
S'positively_regulates'
p3820
sg1740
g3132
sg1741
g3132
ssg1047
(dp3821
g1743
S'positively_regulates'
p3822
sg1744
g3132
sg1351
g3132
ssg845
(dp3823
g1281
g3132
sg1746
S'regulates'
p3824
sg1747
g3132
ssg837
(dp3825
g1749
S'regulates'
p3826
sg1750
g3132
ssg1751
(dp3827
g1754
g3132
sg1753
S'positively_regulates'
p3828
sg981
g3132
ssg1755
(dp3829
g1758
S'part_of'
p3830
sg1757
S'regulates'
p3831
sg1759
g3132
ssg1760
(dp3832
g1762
S'regulates'
p3833
sg1764
g3132
sg1763
S'part_of'
p3834
ssg1765
(dp3835
g1695
g3132
ssg37
(dp3836
g1768
g3132
ssg724
(dp3837
g681
g3132
ssg1770
(dp3838
g1772
g3132
sg1773
g3132
ssg1578
(dp3839
g1775
g3132
ssg1776
(dp3840
g1778
g3132
ssg1779
(dp3841
g1782
g3132
sg1781
g3132
ssg376
(dp3842
g1784
S'positively_regulates'
p3843
sg1787
g3132
sg1785
g3132
sg1786
g3132
ssg199
(dp3844
g1789
g3132
ssg1317
(dp3845
g1791
g3132
ssg1792
(dp3846
g1794
g3132
sg1795
g3132
ssg1358
(dp3847
g1798
g3132
sg1797
g3132
ssg154
(dp3848
g1800
g3132
ssg625
(dp3849
g1803
g3132
sg1802
g3132
ssg613
(dp3850
g1806
g3132
sg1805
g3132
ssg1194
(dp3851
g1809
g3132
sg1808
g3132
ssg1810
(dp3852
g1813
g3132
sg1812
g3132
ssg1070
(dp3853
g1815
g3132
ssg1237
(dp3854
g1184
g3132
sg914
g3132
sg202
g3132
ssg1817
(dp3855
g1819
S'negatively_regulates'
p3856
sg1820
g3132
sg1821
g3132
ssg179
(dp3857
g533
g3132
sg1823
S'regulates'
p3858
ssg1824
(dp3859
g312
g3132
sg1826
S'regulates'
p3860
ssg969
(dp3861
g1829
g3132
sg1828
S'negatively_regulates'
p3862
sg1830
g3132
ssg1594
(dp3863
g1833
g3132
sg1832
S'positively_regulates'
p3864
sg1834
g3132
ssg1835
(dp3865
g1837
S'regulates'
p3866
sg1838
g3132
ssg1839
(dp3867
g1841
S'regulates'
p3868
sg1842
g3132
sg1843
g3132
ssg1844
(dp3869
g1846
g3132
ssg1847
(dp3870
g1849
g3132
ssg1850
(dp3871
g1599
g3132
ssg1377
(dp3872
g1853
g3132
sg1850
S'part_of'
p3873
ssg1854
(dp3874
g1856
g3132
ssg1857
(dp3875
g1860
g3132
sg1859
g3132
ssg318
(dp3876
g1862
g3132
ssg1863
(dp3877
g1865
g3132
ssg1866
(dp3878
g1868
S'regulates'
p3879
sg1870
g3132
sg1869
g3132
sg746
g3132
sg280
g3132
sg970
g3132
ssg931
(dp3880
g1873
g3132
sg1872
S'part_of'
p3881
sg1874
g3132
ssg1875
(dp3882
g1877
g3132
ssg1878
(dp3883
g1882
g3132
sg1880
S'part_of'
p3884
sg1881
g3132
ssg390
(dp3885
g1885
g3132
sg1887
g3132
sg1888
g3132
sg1884
S'negatively_regulates'
p3886
sg1886
g3132
ssg1889
(dp3887
g1891
g3132
sg1892
g3132
ssg1893
(dp3888
g1896
g3132
sg1895
g3132
ssg1897
(dp3889
g1899
S'regulates'
p3890
sg702
g3132
ssg1900
(dp3891
g1902
g3132
ssg1903
(dp3892
g1905
S'part_of'
p3893
sg1906
g3132
ssg1907
(dp3894
g1909
S'part_of'
p3895
sg188
g3132
sg241
g3132
ssg1910
(dp3896
g1912
g3132
ssg1666
(dp3897
g1187
S'part_of'
p3898
sg549
g3132
ssg1508
(dp3899
g1915
g3132
sg1916
g3132
ssg1917
(dp3900
g1919
g3132
ssg268
(dp3901
g1921
S'positively_regulates'
p3902
sg1922
g3132
ssg263
(dp3903
g1924
S'negatively_regulates'
p3904
sg1925
g3132
ssg510
(dp3905
g1284
g3132
sg1927
S'part_of'
p3906
ssg1928
(dp3907
g1930
g3132
ssg151
(dp3908
g1932
S'regulates'
p3909
sg1580
g3132
sg1494
g3132
ssg943
(dp3910
g1934
g3132
ssg1935
(dp3911
g1937
S'positively_regulates'
p3912
sg1938
g3132
sg1713
g3132
ssg1939
(dp3913
g1941
g3132
ssg1099
(dp3914
g395
g3132
sg1943
S'regulates'
p3915
sg524
g3132
ssg1486
(dp3916
g1945
g3132
sg1946
g3132
ssg1028
(dp3917
g1948
g3132
ssg1949
(dp3918
g1951
g3132
ssg1424
(dp3919
g1953
g3132
ssg950
(dp3920
g1955
g3132
ssg1956
(dp3921
g1958
g3132
ssg201
(dp3922
g1960
g3132
sg1141
g3132
ssg338
(dp3923
g1962
g3132
ssg1195
(dp3924
g1965
g3132
sg1966
g3132
sg1964
S'part_of'
p3925
ssg1967
(dp3926
g595
g3132
ssg1107
(dp3927
g1971
g3132
sg1970
S'regulates'
p3928
ssg1965
(dp3929
g1973
g3132
sg1974
g3132
ssg1973
(dp3930
g1137
g3132
ssg817
(dp3931
g1978
g3132
sg1977
g3132
ssg1979
(dp3932
g1982
g3132
sg1981
S'regulates'
p3933
ssg353
(dp3934
g1985
g3132
sg1984
g3132
ssg1986
(dp3935
g1988
g3132
ssg1989
(dp3936
g598
g3132
ssg1991
(dp3937
g1041
g3132
ssg1993
(dp3938
g1318
g3132
sg1995
S'regulates'
p3939
ssg325
(dp3940
g1006
g3132
ssg1259
(dp3941
g755
g3132
sg1999
g3132
sg1998
S'positively_regulates'
p3942
ssg1202
(dp3943
g1993
g3132
sg2002
g3132
sg2003
g3132
sg2001
S'regulates'
p3944
ssg597
(dp3945
g1387
g3132
ssg2005
(dp3946
g2007
g3132
sg889
g3132
ssg2008
(dp3947
g2010
g3132
sg2011
g3132
ssg875
(dp3948
g2013
g3132
ssg2014
(dp3949
g2017
g3132
sg2016
S'positively_regulates'
p3950
sg1556
g3132
sg1367
g3132
ssg783
(dp3951
g1817
g3132
sg2019
S'negatively_regulates'
p3952
sg183
g3132
sg2020
g3132
ssg1271
(dp3953
g2022
g3132
ssg629
(dp3954
g518
S'part_of'
p3955
sg2024
g3132
ssg2025
(dp3956
g2029
g3132
sg2027
S'regulates'
p3957
sg2028
S'regulates'
p3958
ssg1570
(dp3959
g2032
g3132
sg2031
S'positively_regulates'
p3960
sg345
g3132
ssg2033
(dp3961
g2035
g3132
sg2036
g3132
ssg2037
(dp3962
g2039
g3132
ssg2040
(dp3963
g2042
S'positively_regulates'
p3964
sg2044
g3132
sg2043
g3132
ssg2045
(dp3965
g2049
g3132
sg2048
g3132
sg2047
S'part_of'
p3966
ssg2050
(dp3967
g2052
g3132
ssg2055
(dp3968
g2057
g3132
ssg2058
(dp3969
g2060
g3132
sg2061
g3132
ssg2062
(dp3970
g2058
g3132
ssg468
(dp3971
g1390
g3132
sg1062
g3132
ssg2065
(dp3972
g1003
g3132
sg1956
S'part_of'
p3973
ssg200
(dp3974
g2068
g3132
ssg2069
(dp3975
g2071
g3132
ssg2071
(dp3976
g2073
g3132
ssg1951
(dp3977
g2075
g3132
ssg2076
(dp3978
g2078
g3132
ssg2079
(dp3979
g2081
S'negatively_regulates'
p3980
sg1399
g3132
ssg2082
(dp3981
g2084
g3132
sg2085
g3132
ssg824
(dp3982
g2088
g3132
sg2087
S'regulates'
p3983
sg1311
g3132
ssg2089
(dp3984
g880
g3132
ssg1809
(dp3985
g336
g3132
ssg2092
(dp3986
g2094
S'regulates'
p3987
sg2095
g3132
sg2096
g3132
ssg2097
(dp3988
g2101
g3132
sg2100
g3132
sg2099
S'negatively_regulates'
p3989
ssg2102
(dp3990
g1844
g3132
ssg1984
(dp3991
g2105
g3132
ssg2106
(dp3992
g2110
g3132
sg2109
g3132
sg2108
S'positively_regulates'
p3993
ssg1667
(dp3994
g2113
g3132
sg2112
S'part_of'
p3995
ssg2114
(dp3996
g2116
g3132
ssg2117
(dp3997
g1854
g3132
ssg2119
(dp3998
g2121
S'part_of'
p3999
sg452
g3132
ssg1670
(dp4000
g2123
g3132
ssg2123
(dp4001
g1939
g3132
sg2125
g3132
ssg1441
(dp4002
g2127
g3132
sg572
g3132
ssg574
(dp4003
g2129
g3132
ssg2130
(dp4004
g2132
g3132
ssg2132
(dp4005
g1272
g3132
ssg2134
(dp4006
g2136
g3132
sg2137
g3132
ssg2138
(dp4007
g1553
g3132
ssg1712
(dp4008
g2142
g3132
sg2141
g3132
ssg2143
(dp4009
g2145
g3132
ssg394
(dp4010
g2053
g3132
ssg2145
(dp4011
g1299
g3132
ssg34
(dp4012
g2149
g3132
ssg2150
(dp4013
g2154
g3132
sg2155
g3132
sg2153
g3132
sg2152
g3132
ssg436
(dp4014
g2157
g3132
ssg1964
(dp4015
g2159
g3132
sg2160
g3132
ssg2161
(dp4016
g2164
g3132
sg2163
g3132
sg2165
g3132
sg1857
g3132
sg2008
g3132
ssg213
(dp4017
g2167
g3132
ssg2154
(dp4018
g2169
g3132
ssg2170
(dp4019
g2172
S'regulates'
p4020
sg1263
g3132
ssg2173
(dp4021
g1359
g3132
sg2175
S'negatively_regulates'
p4022
sg2176
g3132
ssg275
(dp4023
g1152
g3132
sg2178
g3132
sg994
g3132
ssg2179
(dp4024
g2181
g3132
sg2182
g3132
sg387
S'part_of'
p4025
ssg1136
(dp4026
g2184
g3132
ssg2163
(dp4027
g2186
g3132
sg2187
g3132
ssg1868
(dp4028
g2189
g3132
sg2191
g3132
sg2190
g3132
ssg1196
(dp4029
g2193
g3132
sg2195
g3132
sg2194
g3132
ssg2196
(dp4030
g725
g3132
ssg317
(dp4031
g2199
g3132
ssg1489
(dp4032
g2201
S'regulates'
p4033
sg1835
g3132
ssg2202
(dp4034
g2206
g3132
sg2204
S'positively_regulates'
p4035
sg2205
g3132
ssg210
(dp4036
g2208
g3132
ssg1139
(dp4037
g2210
g3132
ssg1891
(dp4038
g2212
S'part_of'
p4039
sg2213
g3132
ssg999
(dp4040
g2215
g3132
sg2216
g3132
ssg2217
(dp4041
g2220
g3132
sg2219
g3132
ssg2221
(dp4042
g1770
g3132
ssg683
(dp4043
g2221
g3132
ssg2224
(dp4044
g2226
g3132
ssg882
(dp4045
g1889
g3132
ssg2075
(dp4046
g437
g3132
sg2161
g3132
sg2229
g3132
ssg2230
(dp4047
g2232
S'regulates'
p4048
sg2233
g3132
ssg2234
(dp4049
g1893
g3132
ssg1366
(dp4050
g2237
g3132
ssg1613
(dp4051
g2239
g3132
ssg2240
(dp4052
g2242
S'part_of'
p4053
sg2243
g3132
ssg2244
(dp4054
g2247
g3132
sg147
g3132
sg497
g3132
sg2246
S'regulates'
p4055
ssg2248
(dp4056
g2252
g3132
sg2251
g3132
sg2253
g3132
sg2250
g3132
sg2134
g3132
ssg888
(dp4057
g2255
S'part_of'
p4058
sg2256
g3132
ssg2257
(dp4059
g2259
g3132
ssg1025
(dp4060
g2261
g3132
ssg10
(dp4061
g886
g3132
sg141
g3132
ssg2212
(dp4062
g231
g3132
ssg1930
(dp4063
g2265
g3132
ssg2266
(dp4064
g2268
S'part_of'
p4065
sg963
g3132
sg2117
g3132
ssg2057
(dp4066
g1384
g3132
sg2270
g3132
ssg2265
(dp4067
g300
g3132
ssg2272
(dp4068
g2274
g3132
ssg2275
(dp4069
g1160
S'positively_regulates'
p4070
sg2277
g3132
sg2278
g3132
sg1465
g3132
ssg2255
(dp4071
g197
g3132
ssg2280
(dp4072
g1979
g3132
sg2282
S'negatively_regulates'
p4073
sg2285
g3132
sg2284
g3132
sg2283
g3132
ssg386
(dp4074
g2287
S'regulates'
p4075
sg1403
g3132
sg2288
g3132
ssg866
(dp4076
g2290
g3132
ssg2291
(dp4077
g2005
g3132
sg622
g3132
sg1700
g3132
ssg1955
(dp4078
g2294
g3132
ssg1691
(dp4079
g2296
S'regulates'
p4080
sg2297
g3132
ssg1803
(dp4081
g2299
g3132
ssg2300
(dp4082
g2304
g3132
sg2303
g3132
sg804
S'positively_regulates'
p4083
sg2302
g3132
ssg2288
(dp4084
g2308
g3132
sg2306
S'regulates'
p4085
sg2307
g3132
ssg2309
(dp4086
g770
g3132
sg779
S'part_of'
p4087
sg120
S'negatively_regulates'
p4088
sg795
g3132
sg2311
S'negatively_regulates'
p4089
ssg2312
(dp4090
g133
g3132
sg164
S'regulates'
p4091
sg1897
g3132
ssg2314
(dp4092
g2317
g3132
sg1523
g3132
sg2316
g3132
ssg2318
(dp4093
g833
S'part_of'
p4094
sg1755
g3132
sg2320
S'negatively_regulates'
p4095
sg2321
g3132
ssg2322
(dp4096
g2324
S'negatively_regulates'
p4097
sg2325
g3132
ssg2032
(dp4098
g892
g3132
sg2327
S'regulates'
p4099
ssg2328
(dp4100
g2257
S'negatively_regulates'
p4101
sg2330
g3132
ssg30
(dp4102
g2332
S'regulates'
p4103
sg2333
g3132
ssg2250
(dp4104
g2335
g3132
sg2336
g3132
ssg2337
(dp4105
g1455
g3132
sg1432
g3132
sg2339
S'negatively_regulates'
p4106
ssg1716
(dp4107
g665
g3132
sg2341
S'regulates'
p4108
ssg1938
(dp4109
g575
g3132
sg2344
g3132
sg2343
S'positively_regulates'
p4110
ssg2345
(dp4111
g2347
g3132
ssg1248
(dp4112
g2345
S'part_of'
p4113
sg2349
g3132
ssg1392
(dp4114
g2351
g3132
ssg2352
(dp4115
g2354
S'positively_regulates'
p4116
sg1751
g3132
sg2355
g3132
ssg2355
(dp4117
g2357
S'regulates'
p4118
sg2358
g3132
ssg2229
(dp4119
g2361
g3132
sg2360
g3132
ssg2362
(dp4120
g585
g3132
ssg2364
(dp4121
g2366
S'part_of'
p4122
sg2367
g3132
ssg2367
(dp4123
g2369
g3132
ssg2370
(dp4124
g1243
g3132
ssg1522
(dp4125
g2373
g3132
sg1326
g3132
ssg2374
(dp4126
g2378
g3132
sg2376
S'negatively_regulates'
p4127
sg2377
g3132
ssg2379
(dp4128
g2381
g3132
ssg1154
(dp4129
g2383
g3132
ssg2384
(dp4130
g2386
S'negatively_regulates'
p4131
sg2387
g3132
sg1532
g3132
ssg2387
(dp4132
g2389
S'regulates'
p4133
sg2390
g3132
ssg2391
(dp4134
g27
g3132
sg2393
S'regulates'
p4135
ssg1040
(dp4136
g2395
g3132
ssg2243
(dp4137
g2397
g3132
ssg2253
(dp4138
g2400
g3132
sg2399
g3132
ssg2401
(dp4139
g829
g3132
sg2403
S'regulates'
p4140
ssg2068
(dp4141
g2405
g3132
ssg2316
(dp4142
g1075
g3132
sg1407
g3132
ssg1946
(dp4143
g2408
g3132
ssg41
(dp4144
g2248
g3132
sg502
g3132
sg79
g3132
ssg2220
(dp4145
g997
S'part_of'
p4146
sg2411
g3132
ssg1503
(dp4147
g2414
g3132
sg2413
g3132
sg1779
g3132
ssg356
(dp4148
g2416
S'positively_regulates'
p4149
sg1334
g3132
sg2417
g3132
ssg364
(dp4150
g2419
S'regulates'
p4151
sg1329
g3132
ssg2420
(dp4152
g2422
g3132
sg2423
g3132
ssg1902
(dp4153
g2425
g3132
sg1903
S'part_of'
p4154
ssg1644
(dp4155
g74
g3132
sg2428
S'regulates'
p4156
sg2427
S'part_of'
p4157
ssg2429
(dp4158
g2196
g3132
ssg1768
(dp4159
g2432
g3132
sg1900
S'part_of'
p4160
ssg2433
(dp4161
g2435
g3132
sg2436
g3132
ssg115
(dp4162
g2438
g3132
ssg471
(dp4163
g2440
g3132
sg2441
g3132
ssg2219
(dp4164
g2443
g3132
ssg2444
(dp4165
g2312
g3132
sg2446
g3132
sg2447
g3132
ssg42
(dp4166
g2449
g3132
ssg1464
(dp4167
g2451
S'regulates'
p4168
sg2452
g3132
ssg1431
(dp4169
g2454
S'negatively_regulates'
p4170
sg2455
g3132
sg2456
g3132
ssg2194
(dp4171
g2459
g3132
sg2458
S'part_of'
p4172
ssg2460
(dp4173
g2462
S'negatively_regulates'
p4174
sg2318
g3132
ssg2463
(dp4175
g2465
g3132
ssg1274
(dp4176
g2467
g3132
ssg290
(dp4177
g2469
g3132
ssg2469
(dp4178
g2471
g3132
ssg2472
(dp4179
g2474
g3132
sg2475
g3132
ssg1226
(dp4180
g2477
g3132
ssg2478
(dp4181
g2480
g3132
ssg2481
(dp4182
g2483
g3132
ssg2484
(dp4183
g2486
g3132
ssg2487
(dp4184
g1224
g3132
ssg2489
(dp4185
g441
g3132
ssg1457
(dp4186
g2493
g3132
sg2492
S'negatively_regulates'
p4187
sg2494
g3132
ssg2495
(dp4188
g2498
g3132
sg2497
g3132
ssg2499
(dp4189
g2501
g3132
sg1668
g3132
ssg1505
(dp4190
g2503
g3132
sg2504
g3132
ssg2317
(dp4191
g2506
g3132
ssg2507
(dp4192
g2510
g3132
sg2511
g3132
sg2509
S'negatively_regulates'
p4193
ssg2512
(dp4194
g2514
g3132
sg954
S'part_of'
p4195
sg1110
g3132
ssg2515
(dp4196
g1059
g3132
ssg405
(dp4197
g2518
g3132
ssg1213
(dp4198
g403
g3132
ssg2520
(dp4199
g2522
S'positively_regulates'
p4200
sg841
S'part_of'
p4201
sg1640
g3132
sg1760
g3132
ssg1509
(dp4202
g2524
g3132
ssg531
(dp4203
g2526
S'regulates'
p4204
sg2401
g3132
ssg604
(dp4205
g2528
S'regulates'
p4206
sg2529
g3132
ssg1705
(dp4207
g2531
g3132
ssg1462
(dp4208
g2533
S'regulates'
p4209
sg1824
g3132
ssg2534
(dp4210
g1501
g3132
sg1049
g3132
sg2536
g3132
ssg1699
(dp4211
g2538
g3132
ssg1945
(dp4212
g2130
g3132
ssg2017
(dp4213
g853
g3132
sg2541
S'regulates'
p4214
sg2542
g3132
ssg2543
(dp4215
g1175
g3132
ssg2545
(dp4216
g1096
g3132
sg296
g3132
sg2548
g3132
sg2547
S'regulates'
p4217
ssg2549
(dp4218
g2551
S'regulates'
p4219
sg2552
g3132
sg2391
g3132
ssg1574
(dp4220
g2040
g3132
sg2554
S'positively_regulates'
p4221
sg2555
g3132
sg1527
g3132
ssg2556
(dp4222
g588
g3132
ssg2552
(dp4223
g2560
g3132
sg2559
S'regulates'
p4224
ssg2561
(dp4225
g2545
g3132
sg932
g3132
sg2352
g3132
sg303
g3132
sg1645
S'positively_regulates'
p4226
ssg2563
(dp4227
g2314
S'part_of'
p4228
sg2565
g3132
ssg1430
(dp4229
g2569
g3132
sg2568
g3132
sg2567
S'negatively_regulates'
p4230
ssg1469
(dp4231
g2573
g3132
sg2572
g3132
sg2571
S'positively_regulates'
p4232
ssg1029
(dp4233
g848
g3132
sg2575
S'part_of'
p4234
ssg2189
(dp4235
g2577
g3132
ssg2578
(dp4236
g1072
g3132
ssg2580
(dp4237
g2582
g3132
ssg2167
(dp4238
g809
g3132
ssg1542
(dp4239
g2585
g3132
ssg879
(dp4240
g2589
g3132
sg2587
S'positively_regulates'
p4241
sg2588
g3132
ssg917
(dp4242
g2591
g3132
ssg1393
(dp4243
g1810
S'part_of'
p4244
sg2593
g3132
ssg1463
(dp4245
g2596
g3132
sg2595
S'regulates'
p4246
ssg2597
(dp4247
g463
g3132
ssg2311
(dp4248
g449
g3132
sg2600
S'part_of'
p4249
sg2119
g3132
ssg2395
(dp4250
g2602
g3132
ssg2603
(dp4251
g2605
S'regulates'
p4252
sg1459
g3132
ssg2606
(dp4253
g2608
g3132
sg1949
S'part_of'
p4254
ssg2609
(dp4255
g1019
g3132
ssg166
(dp4256
g2613
g3132
sg2612
S'part_of'
p4257
ssg1892
(dp4258
g2045
g3132
sg2069
g3132
ssg1909
(dp4259
g1082
g3132
ssg2105
(dp4260
g2617
g3132
sg2050
S'part_of'
p4261
sg2037
g3132
ssg2618
(dp4262
g2620
g3132
ssg929
(dp4263
g2138
g3132
sg2622
g3132
ssg2623
(dp4264
g699
g3132
ssg2625
(dp4265
g1650
g3132
sg2627
g3132
ssg996
(dp4266
g2629
g3132
sg1657
g3132
sg52
g3132
ssg2630
(dp4267
g2633
g3132
sg2632
S'regulates'
p4268
sg2170
g3132
sg2092
g3132
sg1372
g3132
ssg2165
(dp4269
g2636
g3132
sg2635
g3132
ssg2501
(dp4270
g1588
g3132
sg1134
g3132
ssg2638
(dp4271
g2641
g3132
sg2640
S'negatively_regulates'
p4272
sg2173
g3132
sg717
g3132
sg2097
g3132
ssg1610
(dp4273
g2630
g3132
sg2645
g3132
sg2643
S'positively_regulates'
p4274
sg2106
g3132
sg2644
g3132
ssg2646
(dp4275
g2648
g3132
ssg1678
(dp4276
g2650
g3132
sg1156
g3132
ssg286
(dp4277
g2652
g3132
ssg2653
(dp4278
g491
g3132
sg2657
g3132
sg2656
g3132
sg2655
S'positively_regulates'
p4279
ssg2339
(dp4280
g2512
g3132
sg138
g3132
ssg279
(dp4281
g2663
g3132
sg2661
g3132
sg2662
g3132
sg2660
S'positively_regulates'
p4282
ssg339
(dp4283
g2665
g3132
sg2666
g3132
ssg2667
(dp4284
g2578
g3132
sg606
g3132
ssg2669
(dp4285
g2671
g3132
sg2672
g3132
ssg1402
(dp4286
g2675
g3132
sg2674
S'negatively_regulates'
p4287
ssg1877
(dp4288
g2677
g3132
ssg2361
(dp4289
g2679
g3132
sg1308
g3132
ssg2680
(dp4290
g2682
g3132
sg2463
g3132
ssg603
(dp4291
g2685
g3132
sg2684
g3132
ssg1590
(dp4292
g2687
g3132
ssg186
(dp4293
g2689
S'negatively_regulates'
p4294
sg2691
g3132
sg2690
g3132
ssg1632
(dp4295
g2693
g3132
sg1863
g3132
ssg2694
(dp4296
g2680
g3132
sg399
g3132
ssg808
(dp4297
g2698
g3132
sg2697
g3132
ssg2358
(dp4298
g2700
S'regulates'
p4299
sg2230
g3132
ssg2701
(dp4300
g2705
g3132
sg340
g3132
sg2704
g3132
sg2703
S'negatively_regulates'
p4301
ssg1974
(dp4302
g2708
g3132
sg989
g3132
sg2707
S'part_of'
p4303
ssg315
(dp4304
g2710
g3132
ssg1444
(dp4305
g2712
g3132
sg2713
g3132
ssg2713
(dp4306
g2715
g3132
ssg738
(dp4307
g2556
g3132
ssg1328
(dp4308
g2718
g3132
ssg1242
(dp4309
g2721
g3132
sg2720
S'regulates'
p4310
ssg716
(dp4311
g2723
g3132
ssg306
(dp4312
g2727
g3132
sg2725
S'positively_regulates'
p4313
sg2726
g3132
ssg1564
(dp4314
g2729
g3132
ssg2730
(dp4315
g2732
g3132
sg2733
g3132
sg1647
g3132
sg1692
g3132
sg173
g3132
ssg715
(dp4316
g948
g3132
ssg1475
(dp4317
g2240
S'regulates'
p4318
sg426
g3132
ssg2178
(dp4319
g418
g3132
sg2738
g3132
sg2737
g3132
ssg33
(dp4320
g2580
g3132
ssg1155
(dp4321
g2625
g3132
sg1417
g3132
ssg2252
(dp4322
g2743
g3132
sg2742
g3132
ssg812
(dp4323
g2745
g3132
sg423
g3132
ssg2863
(dp4324
g977
g3132
sg2865
S'regulates'
p4325
ssg656
(dp4326
g2749
g3132
ssg1789
(dp4327
g2746
g3132
ssg2303
(dp4328
g2753
g3132
sg2752
S'regulates'
p4329
sg2754
g3132
ssg2282
(dp4330
g2756
g3132
ssg742
(dp4331
g2758
S'regulates'
p4332
sg2759
g3132
ssg1435
(dp4333
g2762
g3132
sg2761
S'regulates'
p4334
sg1113
S'part_of'
p4335
ssg2763
(dp4336
g2765
g3132
sg2766
g3132
ssg85
(dp4337
g1016
g3132
sg2768
g3132
ssg1563
(dp4338
g2618
g3132
ssg1233
(dp4339
g2597
g3132
ssg2246
(dp4340
g308
g3132
sg2772
g3132
ssg2773
(dp4341
g2776
g3132
sg2775
g3132
ssg447
(dp4342
g2779
g3132
sg2778
S'regulates'
p4343
ssg311
(dp4344
g2549
S'part_of'
p4345
sg2781
g3132
sg2364
g3132
ssg2782
(dp4346
g673
g3132
sg2785
g3132
sg2784
S'negatively_regulates'
p4347
sg2786
g3132
ssg2125
(dp4348
g2609
S'part_of'
p4349
sg2788
g3132
ssg1365
(dp4350
g2790
g3132
ssg777
(dp4351
g2792
g3132
ssg697
(dp4352
g2623
g3132
ssg2794
(dp4353
g2797
g3132
sg2796
S'part_of'
p4354
ssg923
(dp4355
g2799
g3132
sg2800
g3132
ssg1887
(dp4356
g2804
g3132
sg2802
S'negatively_regulates'
p4357
sg2803
g3132
ssg2733
(dp4358
g2806
g3132
sg2807
g3132
ssg2270
(dp4359
g2810
g3132
sg2809
g3132
ssg956
(dp4360
g2812
g3132
ssg1886
(dp4361
g2814
S'negatively_regulates'
p4362
sg2815
g3132
sg2816
g3132
ssg477
(dp4363
g2818
S'regulates'
p4364
sg2819
g3132
ssg2820
(dp4365
g2822
g3132
sg2379
S'part_of'
p4366
sg2823
g3132
ssg2824
(dp4367
g2826
g3132
ssg2827
(dp4368
g2830
g3132
sg2831
g3132
sg2829
g3132
ssg476
(dp4369
g2833
S'regulates'
p4370
sg2834
g3132
ssg329
(dp4371
g2836
S'negatively_regulates'
p4372
sg2837
g3132
sg1012
g3132
ssg334
(dp4373
g2839
S'positively_regulates'
p4374
sg2840
g3132
sg1008
g3132
ssg2841
(dp4375
g2515
g3132
ssg2843
(dp4376
g2846
g3132
sg2845
g3132
ssg2847
(dp4377
g2843
g3132
sg2849
g3132
ssg2849
(dp4378
g2841
g3132
ssg2851
(dp4379
g2853
g3132
ssg1687
(dp4380
g630
g3132
ssg2768
(dp4381
g2856
g3132
ssg1874
(dp4382
g2859
g3132
sg2858
S'part_of'
p4383
ssg2822
(dp4384
g2862
g3132
sg2861
S'part_of'
p4385
ssg2866
(dp4386
g2868
g3132
ssg2869
(dp4387
g2872
g3132
sg2871
S'regulates'
p4388
sg2873
g3132
ssg1550
(dp4389
g2875
g3132
ssg2876
(dp4390
g2878
g3132
ssg277
(dp4391
g1100
g3132
sg2881
g3132
sg2869
g3132
sg2880
S'regulates'
p4392
ssg1095
(dp4393
g1910
S'part_of'
p4394
sg2883
g3132
ssg1869
(dp4395
g2886
g3132
sg2885
S'regulates'
p4396
ssg1051
(dp4397
g2888
g3132
sg2889
g3132
sg2773
g3132
ssg238
(dp4398
g2891
g3132
ssg2608
(dp4399
g2489
g3132
ssg2873
(dp4400
g2894
S'regulates'
p4401
sg2895
g3132
ssg2127
(dp4402
g2897
g3132
ssg2321
(dp4403
g2899
S'negatively_regulates'
p4404
sg2900
S'part_of'
p4405
sg1412
g3132
sg2901
g3132
ssg2084
(dp4406
g1356
g3132
sg896
g3132
ssg2085
(dp4407
g2904
S'part_of'
p4408
sg2905
g3132
sg2906
g3132
ssg2907
(dp4409
g1520
S'negatively_regulates'
p4410
sg2025
g3132
sg1717
g3132
ssg2441
(dp4411
g2910
g3132
ssg506
(dp4412
g2730
g3132
sg2912
g3132
ssg2913
(dp4413
g2915
S'positively_regulates'
p4414
sg2917
g3132
sg2916
g3132
ssg2918
(dp4415
g2920
S'negatively_regulates'
p4416
sg1426
g3132
sg2921
g3132
sg2922
g3132
ssg2278
(dp4417
g2924
S'regulates'
p4418
sg2925
g3132
sg2926
g3132
ssg2645
(dp4419
g1450
g3132
sg2928
S'positively_regulates'
p4420
sg2929
g3132
ssg1245
(dp4421
g2931
g3132
sg59
g3132
ssg815
(dp4422
g2933
g3132
sg2934
g3132
ssg649
(dp4423
g2936
g3132
ssg233
(dp4424
g647
g3132
ssg287
(dp4425
g2939
S'regulates'
p4426
sg2863
g3132
ssg2940
(dp4427
g2942
g3132
ssg2943
(dp4428
g2945
g3132
ssg844
(dp4429
g2947
S'positively_regulates'
p4430
sg2603
g3132
sg2275
g3132
ssg2948
(dp4431
g2950
S'negatively_regulates'
p4432
sg2918
g3132
sg2951
g3132
ssg2952
(dp4433
g2954
g3132
sg2940
g3132
ssg2955
(dp4434
g2824
g3132
ssg2957
(dp4435
g2959
g3132
ssg864
(dp4436
g1302
S'part_of'
p4437
sg2961
g3132
ssg2514
(dp4438
g2963
S'part_of'
p4439
sg2964
g3132
sg2965
g3132
ssg775
(dp4440
g2967
S'part_of'
p4441
sg2969
g3132
sg2968
S'regulates'
p4442
ssg561
(dp4443
g2973
g3132
sg2971
S'positively_regulates'
p4444
sg2972
g3132
sg1543
g3132
ssg1619
(dp4445
g2975
S'regulates'
p4446
sg2976
g3132
sg409
g3132
ssg2277
(dp4447
g2979
g3132
sg264
g3132
sg2978
S'positively_regulates'
p4448
sg905
g3132
ssg2921
(dp4449
g2982
g3132
sg259
g3132
sg900
g3132
sg2981
S'negatively_regulates'
p4450
ssg2979
(dp4451
g2985
g3132
sg2984
S'regulates'
p4452
sg1249
g3132
ssg2506
(dp4453
g2987
g3132
ssg440
(dp4454
g2989
g3132
sg2990
g3132
ssg2991
(dp4455
g1681
g3132
ssg2965
(dp4456
g1847
g3132
ssg2964
(dp4457
g2996
g3132
sg2995
S'part_of'
p4458
ssg2644
(dp4459
g706
g3132
sg1591
g3132
sg2998
S'positively_regulates'
p4460
ssg754
(dp4461
g3000
S'regulates'
p4462
sg3001
g3132
ssg2216
(dp4463
g3003
g3132
sg743
S'part_of'
p4464
ssg3004
(dp4465
g3006
g3132
ssg3007
(dp4466
g3009
g3132
sg3010
g3132
sg2444
g3132
ssg3011
(dp4467
g3014
g3132
sg3004
g3132
sg3013
g3132
ssg216
(dp4468
g3017
g3132
sg3016
g3132
ssg2684
(dp4469
g3019
g3132
ssg807
(dp4470
g2272
g3132
ssg3021
(dp4471
g3024
g3132
sg3023
g3132
ssg3025
(dp4472
g3027
g3132
sg2638
g3132
ssg250
(dp4473
g859
g3132
ssg3029
(dp4474
g83
g3132
ssg698
(dp4475
g3032
S'regulates'
p4476
sg3034
g3132
sg3033
g3132
ssg836
(dp4477
g326
g3132
sg3036
S'negatively_regulates'
p4478
sg2948
g3132
sg3037
g3132
ssg2493
(dp4479
g473
g3132
sg3040
g3132
sg3039
S'regulates'
p4480
ssg3041
(dp4481
g1602
g3132
ssg1345
(dp4482
g3044
g3132
ssg1324
(dp4483
g1709
S'part_of'
p4484
sg3046
g3132
sg1878
g3132
ssg1912
(dp4485
g3048
g3132
ssg167
(dp4486
g406
g3132
ssg3050
(dp4487
g2646
g3132
sg3052
g3132
ssg2186
(dp4488
g3054
g3132
sg3055
g3132
ssg3056
(dp4489
g3058
g3132
sg2827
g3132
sg3059
g3132
ssg1193
(dp4490
g3061
g3132
ssg2657
(dp4491
g372
g3132
sg1166
g3132
sg3063
S'positively_regulates'
p4492
sg3064
g3132
ssg3065
(dp4493
g3067
g3132
sg710
S'part_of'
p4494
sg3068
g3132
ssg1934
(dp4495
g2866
g3132
ssg957
(dp4496
g3071
g3132
ssg3072
(dp4497
g3074
g3132
ssg3061
(dp4498
g3072
g3132
ssg2536
(dp4499
g1053
g3132
sg1506
g3132
ssg3009
(dp4500
g3079
g3132
sg2701
g3132
sg3078
S'negatively_regulates'
p4501
sg924
g3132
ssg278
(dp4502
g3083
g3132
sg3081
S'positively_regulates'
p4503
sg3082
g3132
sg2913
g3132
ssg1971
(dp4504
g176
g3132
sg3085
S'regulates'
p4505
sg1480
g3132
ssg1919
(dp4506
g3087
g3132
sg3088
g3132
ssg1163
(dp4507
g3091
g3132
sg3090
g3132
ssg3052
(dp4508
g3093
g3132
ssg3094
(dp4509
g3096
g3132
ssg2691
(dp4510
g3100
g3132
sg3099
g3132
sg3098
S'negatively_regulates'
p4511
ssg1108
(dp4512
g3102
S'positively_regulates'
p4513
sg2202
g3132
sg1044
g3132
sg3103
g3132
ssg457
(dp4514
g434
g3132
sg3021
g3132
ssg3107
(dp4515
g3104
g3132
ssg2153
(dp4516
g3110
g3132
sg291
g3132
ssg3074
(dp4517
g1986
g3132
ssg3006
(dp4518
g3113
g3132
ssg784
(dp4519
g3115
S'negatively_regulates'
p4520
sg3116
g3132
sg2374
g3132
sg3117
g3132
ssg2712
(dp4521
g3119
g3132
sg3120
g3132
ssg1937
(dp4522
g2362
g3132
ssg2856
(dp4523
g3123
g3132
ssg1966
(dp4524
g3125
g3132
sssS'already_added'
p4525
(lp4526
g3104
ag3107
ag2053
ag394
ag143
ag141
ag2746
ag1789
ag199
ag2068
ag200
ag1141
ag201
ag197
ag2255
ag888
ag886
ag10
ag11
ag8
ag300
ag2265
ag1930
ag1928
ag1025
ag1022
ag1299
ag2145
ag2143
ag1082
ag1909
ag241
ag188
ag1907
ag562
ag415
ag240
ag237
ag238
ag235
ag1274
ag1272
ag2132
ag2130
ag1945
ag1946
ag1486
ag144
ag1484
ag1590
ag1588
ag1136
ag1134
ag2501
ag1019
ag2609
ag2125
ag1939
ag2123
ag1670
ag1668
ag2499
ag1079
ag938
ag659
ag657
ag632
ag630
ag1687
ag1685
ag399
ag2463
ag2680
ag2694
ag1803
ag625
ag622
ag889
ag2005
ag1700
ag2291
ag315
ag312
ag1824
ag1462
ag1463
ag1464
ag1459
ag2603
ag1163
ag1160
ag268
ag264
ag1249
ag2979
ag905
ag2277
ag2278
ag1469
ag1379
ag1465
ag2275
ag844
ag1242
ag1239
ag1281
ag845
ag1008
ag334
ag331
ag841
ag74
ag1644
ag1640
ag1760
ag2520
ag2441
ag471
ag885
ag581
ag582
ag472
ag469
ag1328
ag1326
ag1522
ag1520
ag1720
ag1717
ag2025
ag2907
ag1542
ag1540
ag574
ag572
ag2127
ag1441
ag1439
ag2712
ag2713
ag1444
ag912
ag591
ag913
ag1284
ag510
ag479
ag507
ag910
ag1691
ag1688
ag192
ag210
ag208
ag1144
ag649
ag647
ag233
ag231
ag2212
ag1891
ag2071
ag2069
ag2045
ag1892
ag1889
ag882
ag880
ag2089
ag1986
ag3074
ag3072
ag3061
ag1193
ag338
ag339
ag336
ag1809
ag1194
ag1964
ag1139
ag1137
ag1973
ag989
ag1974
ag1965
ag1966
ag1195
ag2469
ag290
ag288
ag2194
ag1196
ag319
ag1191
ag1596
ag1602
ag3041
ag1955
ag950
ag948
ag715
ag716
ag713
ag218
ag963
ag1854
ag2117
ag2266
ag263
ag259
ag900
ag2921
ag1430
ag1431
ag1426
ag2918
ag2948
ag1012
ag329
ag326
ag836
ag837
ag833
ag1412
ag2321
ag1755
ag2318
ag2460
ag1712
ag1709
ag1878
ag1324
ag1322
ag1271
ag310
ag30
ag27
ag2391
ag2552
ag2549
ag2367
ag2364
ag311
ag308
ag2246
ag1297
ag272
ag150
ag1580
ag818
ag1494
ag151
ag147
ag497
ag2244
ag2224
ag2076
ag97
ag98
ag95
ag1072
ag2578
ag606
ag2667
ag1636
ag1424
ag861
ag859
ag250
ag248
ag725
ag2196
ag2429
ag1016
ag2856
ag2768
ag85
ag86
ag83
ag3029
ag1578
ag1576
ag1151
ag1149
ag255
ag251
ag785
ag867
ag879
ag876
ag1175
ag2543
ag1387
ag597
ag595
ag1967
ag1792
ag1041
ag1991
ag2507
ag2322
ag1226
ag1228
ag1227
ag1224
ag2487
ag180
ag2478
ag2580
ag33
ag14
ag12
ag34
ag31
ag633
ag1835
ag1489
ag709
ag706
ag1594
ag1591
ag2644
ag1263
ag2170
ag1372
ag2092
ag2630
ag1450
ag2645
ag2106
ag1610
ag1604
ag1608
ag641
ag1553
ag2138
ag929
ag1874
ag931
ag446
ag447
ag444
ag1172
ag2484
ag1510
ag543
ag541
ag544
ag1365
ag1366
ag1133
ag1131
ag1129
ag317
ag318
ag114
ag115
ag112
ag486
ag483
ag1217
ag154
ag152
ag734
ag88
ag956
ag957
ag954
ag2964
ag1847
ag2965
ag2514
ag1110
ag2512
ag138
ag2339
ag476
ag477
ag473
ag2493
ag1457
ag1445
ag1455
ag1113
ag1435
ag1432
ag2337
ag644
ag1000
ag1006
ag325
ag323
ag423
ag812
ag809
ag2167
ag213
ag211
ag405
ag403
ag1213
ag1211
ag2257
ag2328
ag2763
ag2472
ag2669
ag613
ag610
ag460
ag461
ag458
ag1056
ag986
ag2189
ag1868
ag365
ag746
ag1869
ag970
ag280
ag1866
ag3021
ag436
ag434
ag457
ag455
ag1903
ag1902
ag1900
ag1768
ag37
ag35
ag857
ag1028
ag848
ag1029
ag1026
ag1146
ag156
ag853
ag2017
ag1556
ag1367
ag2014
ag969
ag720
ag722
ag717
ag1359
ag2173
ag2097
ag2638
ag3025
ag2618
ag1563
ag546
ag1564
ag1561
ag866
ag731
ag728
ag1599
ag1850
ag1377
ag1189
ag1187
ag549
ag1666
ag1667
ag1664
ag1893
ag2234
ag223
ag224
ag221
ag585
ag2362
ag1937
ag665
ag1716
ag1713
ag575
ag1938
ag1935
ag2866
ag1934
ag943
ag941
ag1863
ag1632
ag628
ag518
ag629
ag626
ag1396
ag15
ag1625
ag1397
ag1394
ag1645
ag2230
ag2358
ag2355
ag981
ag1751
ag2352
ag395
ag524
ag1099
ag1096
ag296
ag2545
ag306
ag303
ag935
ag932
ag2561
ag777
ag694
ag105
ag692
ag1480
ag533
ag179
ag176
ag1971
ag1107
ag2202
ag1351
ag1047
ag1044
ag1108
ag1105
ag806
ag2272
ag807
ag808
ag804
ag2303
ag2300
ag2243
ag2240
ag429
ag426
ag1475
ag523
ag102
ag521
ag230
ag226
ag110
ag108
ag159
ag294
ag291
ag2153
ag2154
ag2150
ag168
ag245
ag2387
ag1030
ag1532
ag2384
ag1844
ag2102
ag2684
ag603
ag604
ag601
ag1402
ag1399
ag2079
ag452
ag2119
ag449
ag2311
ag120
ag1311
ag824
ag782
ag2691
ag186
ag183
ag1817
ag783
ag2374
ag784
ag779
ag775
ag770
ag795
ag2309
ag2282
ag1979
ag2280
ag3006
ag3004
ag3011
ag1340
ag1681
ag2991
ag1070
ag847
ag565
ag840
ag637
ag838
ag1358
ag1356
ag896
ag2084
ag2085
ag2082
ag50
ag51
ag47
ag1255
ag1206
ag18
ag1403
ag2288
ag386
ag383
ag1180
ag26
ag22
ag672
ag381
ag378
ag1207
ag688
ag1318
ag1993
ag1202
ag131
ag128
ag1197
ag758
ag755
ag1259
ag1208
ag66
ag1203
ag553
ag569
ag166
ag406
ag167
ag164
ag702
ag1897
ag133
ag2312
ag2444
ag340
ag2701
ag764
ag761
ag924
ag3009
ag3007
ag2957
ag59
ag1245
ag1243
ag2370
ag1956
ag1003
ag2065
ag1089
ag2876
ag1677
ag1156
ag1678
ag1675
ag1839
ag389
ag1886
ag1887
ag390
ag387
ag2179
ag1613
ag1611
ag369
ag710
ag3065
ag2379
ag2822
ag2820
ag1317
ag1315
ag1770
ag2221
ag683
ag681
ag724
ag64
ag917
ag914
ag1184
ag202
ag1237
ag923
ag920
ag65
ag62
ag2114
ag2851
ag2058
ag2062
ag2733
ag1647
ag173
ag1692
ag2730
ag506
ag502
ag2250
ag2252
ag2134
ag2253
ag2248
ag79
ag41
ag42
ag39
ag754
ag119
ag116
ag1216
ag1214
ag2940
ag2952
ag673
ag2782
ag2481
ag1699
ag1697
ag1695
ag1765
ag1706
ag92
ag413
ag2943
ag2395
ag1040
ag530
ag829
ag2401
ag531
ag532
ag528
ag2433
ag1059
ag2515
ag2841
ag2849
ag2843
ag2847
ag974
ag1119
ag1705
ag614
ag1703
ag2219
ag743
ag2216
ag999
ag997
ag2220
ag2217
ag661
ag205
ag1117
ag1261
ag440
ag437
ag1308
ag2361
ag2229
ag2186
ag2163
ag2008
ag2165
ag1857
ag2161
ag2075
ag1951
ag1949
ag441
ag2489
ag2608
ag2606
ag1912
ag1910
ag1095
ag1093
ag2495
ag216
ag214
ag1345
ag1343
ag1919
ag1917
ag1877
ag1875
ag2040
ag1527
ag1574
ag1169
ag1170
ag1166
ag376
ag372
ag2657
ag491
ag2653
ag2827
ag3056
ag815
ag816
ag817
ag813
ag463
ag2597
ag1233
ag1231
ag1234
ag2345
ag1248
ag1246
ag1436
ag511
ag1633
ag1289
ag1302
ag864
ag862
ag1122
ag588
ag2556
ag738
ag742
ag739
ag654
ag651
ag1724
ag71
ag286
ag977
ag2863
ag287
ag284
ag1075
ag1407
ag2316
ag2506
ag2317
ag1523
ag2314
ag2563
ag2794
ag2033
ag1776
ag2420
ag1154
ag875
ag871
ag1417
ag1650
ag2625
ag1155
ag1152
ag490
ag54
ag52
ag537
ag1657
ag996
ag124
ag994
ag1307
ag422
ag418
ag2178
ag275
ag789
ag892
ag2032
ag349
ag345
ag1570
ag409
ag1619
ag1587
ag1571
ag1543
ag561
ag556
ag276
ag2873
ag2869
ag1100
ag277
ag2913
ag278
ag279
ag273
ag951
ag960
ag1065
ag2646
ag3052
ag3050
ag46
ag43
ag3094
ag2824
ag2955
ag2050
ag2037
ag2105
ag1984
ag353
ag1332
ag1329
ag364
ag355
ag1337
ag1334
ag356
ag351
ag1420
ag514
ag766
ag1392
ag1810
ag1393
ag1390
ag1062
ag468
ag466
ag1732
ag618
ag684
ag598
ag1989
ag2270
ag1384
ag2057
ag2055
ag800
ag1508
ag1509
ag1506
ag1055
ag1053
ag2536
ag1779
ag1503
ag1505
ag1501
ag2773
ag1051
ag1049
ag2534
ag656
ag101
ag99
ag1550
ag699
ag2623
ag697
ag698
ag695
ag1548
asb.